(dp0
S'camel'
p1
(dp2
S'Recall'
p3
(lp4
(lp5
S'KNN'
p6
aF1.0
aF1.0
aF1.0
aF1.0
aF1.0
aF1.0
aF1.0
aF1.0
aF1.0
aF1.0
aF1.0
aF1.0
aF1.0
aF1.0
aF1.0
aF1.0
aF1.0
aF1.0
aF1.0
aF1.0
aF1.0
aF1.0
aF1.0
aF1.0
aF1.0
aa(lp7
S'SVM'
p8
aF0.985
aF1.0
aF1.0
aF1.0
aF1.0
aF1.0
aF1.0
aF1.0
aF0.954
aF1.0
aF1.0
aF1.0
aF1.0
aF0.985
aF0.985
aF1.0
aF1.0
aF0.985
aF0.954
aF1.0
aF0.97
aF1.0
aF1.0
aF1.0
aF0.985
aa(lp9
S'NB'
p10
aF0.894
aF0.969
aF0.923
aF0.923
aF0.923
aF0.955
aF0.954
aF0.815
aF0.938
aF0.954
aF0.909
aF0.831
aF0.954
aF0.954
aF0.892
aF0.909
aF0.954
aF0.908
aF0.969
aF0.954
aF0.955
aF0.938
aF0.954
aF0.923
aF0.938
aa(lp11
S'RF'
p12
aF0.985
aF1.0
aF1.0
aF1.0
aF1.0
aF1.0
aF1.0
aF1.0
aF0.969
aF1.0
aF1.0
aF0.985
aF1.0
aF0.985
aF0.985
aF1.0
aF1.0
aF1.0
aF0.985
aF1.0
aF1.0
aF1.0
aF1.0
aF1.0
aF0.954
aa(lp13
S'LR'
p14
aF0.985
aF0.985
aF1.0
aF1.0
aF0.985
aF0.985
aF1.0
aF0.985
aF0.969
aF1.0
aF1.0
aF0.985
aF1.0
aF0.985
aF0.954
aF0.985
aF1.0
aF0.985
aF0.969
aF1.0
aF1.0
aF0.985
aF1.0
aF1.0
aF0.969
aa(lp15
S'DT'
p16
aF0.985
aF1.0
aF0.954
aF0.954
aF0.969
aF1.0
aF1.0
aF0.954
aF0.938
aF0.985
aF0.985
aF0.908
aF0.954
aF0.954
aF0.938
aF0.985
aF0.938
aF0.969
aF0.954
aF1.0
aF0.97
aF1.0
aF0.938
aF0.985
aF0.954
aasS'Precision'
p17
(lp18
(lp19
g6
aF0.957
aF0.956
aF0.956
aF0.97
aF0.97
aF0.957
aF0.956
aF0.956
aF0.97
aF0.97
aF0.957
aF0.956
aF0.956
aF0.97
aF0.97
aF0.957
aF0.956
aF0.956
aF0.97
aF0.97
aF0.957
aF0.956
aF0.956
aF0.97
aF0.97
aa(lp20
g8
aF0.956
aF0.956
aF0.956
aF0.97
aF0.97
aF0.957
aF0.956
aF0.956
aF0.969
aF0.97
aF0.957
aF0.956
aF0.956
aF0.97
aF0.97
aF0.957
aF0.956
aF0.955
aF0.969
aF0.97
aF0.955
aF0.956
aF0.956
aF0.97
aF0.97
aa(lp21
g10
aF0.967
aF0.969
aF1.0
aF0.968
aF0.968
aF0.984
aF0.954
aF0.981
aF0.968
aF0.969
aF1.0
aF0.964
aF0.954
aF0.969
aF0.967
aF0.968
aF0.969
aF0.967
aF0.969
aF1.0
aF0.955
aF0.984
aF0.984
aF1.0
aF0.968
aa(lp22
g12
aF0.956
aF0.956
aF0.956
aF0.97
aF0.97
aF0.957
aF0.956
aF0.956
aF0.969
aF0.97
aF0.957
aF0.955
aF0.956
aF0.97
aF0.97
aF0.957
aF0.956
aF0.956
aF0.97
aF0.97
aF0.957
aF0.956
aF0.956
aF0.97
aF0.969
aa(lp23
g14
aF0.956
aF0.955
aF0.956
aF0.97
aF0.97
aF0.956
aF0.956
aF0.955
aF0.969
aF0.97
aF0.957
aF0.955
aF0.956
aF0.97
aF0.969
aF0.956
aF0.956
aF0.955
aF0.969
aF0.97
aF0.957
aF0.955
aF0.956
aF0.97
aF0.969
aa(lp24
g16
aF0.956
aF0.97
aF0.954
aF0.969
aF0.969
aF0.957
aF0.956
aF0.954
aF0.968
aF0.97
aF0.956
aF0.952
aF0.969
aF0.969
aF0.968
aF0.956
aF0.953
aF0.955
aF0.969
aF0.97
aF0.955
aF0.956
aF0.953
aF0.97
aF0.969
aasS'F_score'
p25
(lp26
(lp27
g6
aF0.978
aF0.977
aF0.977
aF0.985
aF0.985
aF0.978
aF0.977
aF0.977
aF0.985
aF0.985
aF0.978
aF0.977
aF0.977
aF0.985
aF0.985
aF0.978
aF0.977
aF0.977
aF0.985
aF0.985
aF0.978
aF0.977
aF0.977
aF0.985
aF0.985
aa(lp28
g8
aF0.97
aF0.977
aF0.977
aF0.985
aF0.985
aF0.978
aF0.977
aF0.977
aF0.961
aF0.985
aF0.978
aF0.977
aF0.977
aF0.977
aF0.977
aF0.978
aF0.977
aF0.97
aF0.961
aF0.985
aF0.962
aF0.977
aF0.977
aF0.985
aF0.977
aa(lp29
g10
aF0.929
aF0.969
aF0.96
aF0.945
aF0.945
aF0.969
aF0.954
aF0.891
aF0.953
aF0.961
aF0.952
aF0.893
aF0.954
aF0.961
aF0.928
aF0.937
aF0.961
aF0.937
aF0.969
aF0.976
aF0.955
aF0.961
aF0.969
aF0.96
aF0.953
aa(lp30
g12
aF0.97
aF0.977
aF0.977
aF0.985
aF0.985
aF0.978
aF0.977
aF0.977
aF0.969
aF0.985
aF0.978
aF0.97
aF0.977
aF0.977
aF0.977
aF0.978
aF0.977
aF0.977
aF0.977
aF0.985
aF0.978
aF0.977
aF0.977
aF0.985
aF0.961
aa(lp31
g14
aF0.97
aF0.97
aF0.977
aF0.985
aF0.977
aF0.97
aF0.977
aF0.97
aF0.969
aF0.985
aF0.978
aF0.97
aF0.977
aF0.977
aF0.961
aF0.97
aF0.977
aF0.97
aF0.969
aF0.985
aF0.978
aF0.97
aF0.977
aF0.985
aF0.969
aa(lp32
g16
aF0.97
aF0.985
aF0.954
aF0.961
aF0.969
aF0.978
aF0.977
aF0.954
aF0.953
aF0.977
aF0.97
aF0.929
aF0.961
aF0.961
aF0.953
aF0.97
aF0.946
aF0.962
aF0.961
aF0.985
aF0.962
aF0.977
aF0.946
aF0.977
aF0.961
aasS'Accuracy'
p33
(lp34
(lp35
g6
aF0.957
aF0.956
aF0.956
aF0.97
aF0.97
aF0.957
aF0.956
aF0.956
aF0.97
aF0.97
aF0.957
aF0.956
aF0.956
aF0.97
aF0.97
aF0.957
aF0.956
aF0.956
aF0.97
aF0.97
aF0.957
aF0.956
aF0.956
aF0.97
aF0.97
aa(lp36
g8
aF0.942
aF0.956
aF0.956
aF0.97
aF0.97
aF0.957
aF0.956
aF0.956
aF0.925
aF0.97
aF0.957
aF0.956
aF0.956
aF0.955
aF0.955
aF0.957
aF0.956
aF0.941
aF0.925
aF0.97
aF0.928
aF0.956
aF0.956
aF0.97
aF0.955
aa(lp37
g10
aF0.87
aF0.941
aF0.926
aF0.896
aF0.896
aF0.942
aF0.912
aF0.809
aF0.91
aF0.925
aF0.913
aF0.809
aF0.912
aF0.925
aF0.866
aF0.884
aF0.926
aF0.882
aF0.94
aF0.955
aF0.913
aF0.926
aF0.941
aF0.925
aF0.91
aa(lp38
g12
aF0.942
aF0.956
aF0.956
aF0.97
aF0.97
aF0.957
aF0.956
aF0.956
aF0.94
aF0.97
aF0.957
aF0.941
aF0.956
aF0.955
aF0.955
aF0.957
aF0.956
aF0.956
aF0.955
aF0.97
aF0.957
aF0.956
aF0.956
aF0.97
aF0.925
aa(lp39
g14
aF0.942
aF0.941
aF0.956
aF0.97
aF0.955
aF0.942
aF0.956
aF0.941
aF0.94
aF0.97
aF0.957
aF0.941
aF0.956
aF0.955
aF0.925
aF0.942
aF0.956
aF0.941
aF0.94
aF0.97
aF0.957
aF0.941
aF0.956
aF0.97
aF0.94
aa(lp40
g16
aF0.942
aF0.971
aF0.912
aF0.925
aF0.94
aF0.957
aF0.956
aF0.912
aF0.91
aF0.955
aF0.942
aF0.868
aF0.926
aF0.925
aF0.91
aF0.942
aF0.897
aF0.926
aF0.925
aF0.97
aF0.928
aF0.956
aF0.897
aF0.955
aF0.925
aass.