(dp0
S'log4j'
p1
(dp2
S'Recall'
p3
(lp4
(lp5
S'KNN'
p6
aF0.0
aF0.0
aF0.0
aF0.0
aF0.0
aF0.0
aF0.0
aF0.0
aF0.0
aF0.0
aF0.0
aF0.0
aF0.0
aF0.0
aF0.0
aF0.0
aF0.0
aF0.0
aF0.0
aF0.0
aF0.0
aF0.0
aF0.0
aF0.0
aF0.0
aa(lp7
S'SVM'
p8
aF0.0
aF0.0
aF0.0
aF0.0
aF0.0
aF0.0
aF0.0
aF0.0
aF0.0
aF0.0
aF0.0
aF0.0
aF0.0
aF0.0
aF0.0
aF0.0
aF0.0
aF0.0
aF0.0
aF0.0
aF0.0
aF0.0
aF0.0
aF0.333
aF0.0
aa(lp9
S'NB'
p10
aF0.5
aF0.333
aF1.0
aF1.0
aF1.0
aF1.0
aF0.333
aF1.0
aF1.0
aF0.333
aF0.75
aF0.667
aF0.667
aF1.0
aF0.667
aF1.0
aF0.667
aF0.667
aF0.667
aF1.0
aF0.75
aF0.667
aF1.0
aF1.0
aF0.667
aa(lp11
S'RF'
p12
aF0.25
aF0.0
aF0.0
aF0.0
aF0.0
aF0.0
aF0.0
aF0.333
aF0.333
aF0.333
aF0.5
aF0.0
aF0.0
aF0.333
aF0.667
aF0.0
aF0.0
aF0.333
aF0.0
aF0.333
aF0.0
aF0.0
aF0.0
aF0.333
aF0.333
aa(lp13
S'LR'
p14
aF0.0
aF0.0
aF0.0
aF0.333
aF0.0
aF0.0
aF0.333
aF0.0
aF0.0
aF0.0
aF0.25
aF0.0
aF0.0
aF0.0
aF0.0
aF0.0
aF0.333
aF0.0
aF0.0
aF0.333
aF0.0
aF0.0
aF0.0
aF0.333
aF0.0
aa(lp15
S'DT'
p16
aF0.25
aF0.0
aF0.0
aF0.667
aF1.0
aF0.25
aF0.333
aF0.667
aF0.333
aF0.667
aF1.0
aF0.0
aF0.0
aF0.667
aF0.667
aF0.5
aF0.0
aF0.667
aF0.333
aF0.667
aF0.5
aF0.333
aF0.333
aF0.333
aF0.333
aasS'Precision'
p17
(lp18
(lp19
g6
aF0.0
aF0.0
aF0.0
aF0.0
aF0.0
aF0.0
aF0.0
aF0.0
aF0.0
aF0.0
aF0.0
aF0.0
aF0.0
aF0.0
aF0.0
aF0.0
aF0.0
aF0.0
aF0.0
aF0.0
aF0.0
aF0.0
aF0.0
aF0.0
aF0.0
aa(lp20
g8
aF0.0
aF0.0
aF0.0
aF0.0
aF0.0
aF0.0
aF0.0
aF0.0
aF0.0
aF0.0
aF0.0
aF0.0
aF0.0
aF0.0
aF0.0
aF0.0
aF0.0
aF0.0
aF0.0
aF0.0
aF0.0
aF0.0
aF0.0
aF0.2
aF0.0
aa(lp21
g10
aF0.111
aF0.056
aF0.13
aF0.12
aF0.12
aF0.182
aF0.05
aF0.103
aF0.115
aF0.077
aF0.107
aF0.071
aF0.143
aF0.115
aF0.118
aF0.174
aF0.118
aF0.118
aF0.071
aF0.111
aF0.111
aF0.1
aF0.143
aF0.12
aF0.118
aa(lp22
g12
aF1.0
aF0.0
aF0.0
aF0.0
aF0.0
aF0.0
aF0.0
aF1.0
aF0.333
aF0.5
aF0.667
aF0.0
aF0.0
aF1.0
aF1.0
aF0.0
aF0.0
aF0.5
aF0.0
aF0.5
aF0.0
aF0.0
aF0.0
aF0.5
aF1.0
aa(lp23
g14
aF0.0
aF0.0
aF0.0
aF1.0
aF0.0
aF0.0
aF0.5
aF0.0
aF0.0
aF0.0
aF0.5
aF0.0
aF0.0
aF0.0
aF0.0
aF0.0
aF0.5
aF0.0
aF0.0
aF0.333
aF0.0
aF0.0
aF0.0
aF0.5
aF0.0
aa(lp24
g16
aF0.333
aF0.0
aF0.0
aF0.667
aF0.5
aF0.333
aF0.5
aF0.667
aF0.167
aF0.5
aF0.8
aF0.0
aF0.0
aF0.5
aF0.5
aF0.667
aF0.0
aF0.667
aF0.125
aF0.4
aF0.667
aF0.25
aF1.0
aF0.25
aF0.25
aasS'F_score'
p25
(lp26
(lp27
g6
aF0.0
aF0.0
aF0.0
aF0.0
aF0.0
aF0.0
aF0.0
aF0.0
aF0.0
aF0.0
aF0.0
aF0.0
aF0.0
aF0.0
aF0.0
aF0.0
aF0.0
aF0.0
aF0.0
aF0.0
aF0.0
aF0.0
aF0.0
aF0.0
aF0.0
aa(lp28
g8
aF0.0
aF0.0
aF0.0
aF0.0
aF0.0
aF0.0
aF0.0
aF0.0
aF0.0
aF0.0
aF0.0
aF0.0
aF0.0
aF0.0
aF0.0
aF0.0
aF0.0
aF0.0
aF0.0
aF0.0
aF0.0
aF0.0
aF0.0
aF0.25
aF0.0
aa(lp29
g10
aF0.182
aF0.095
aF0.231
aF0.214
aF0.214
aF0.308
aF0.087
aF0.188
aF0.207
aF0.125
aF0.188
aF0.129
aF0.235
aF0.207
aF0.2
aF0.296
aF0.2
aF0.2
aF0.129
aF0.2
aF0.194
aF0.174
aF0.25
aF0.214
aF0.2
aa(lp30
g12
aF0.4
aF0.0
aF0.0
aF0.0
aF0.0
aF0.0
aF0.0
aF0.5
aF0.333
aF0.4
aF0.571
aF0.0
aF0.0
aF0.5
aF0.8
aF0.0
aF0.0
aF0.4
aF0.0
aF0.4
aF0.0
aF0.0
aF0.0
aF0.4
aF0.5
aa(lp31
g14
aF0.0
aF0.0
aF0.0
aF0.5
aF0.0
aF0.0
aF0.4
aF0.0
aF0.0
aF0.0
aF0.333
aF0.0
aF0.0
aF0.0
aF0.0
aF0.0
aF0.4
aF0.0
aF0.0
aF0.333
aF0.0
aF0.0
aF0.0
aF0.4
aF0.0
aa(lp32
g16
aF0.286
aF0.0
aF0.0
aF0.667
aF0.667
aF0.286
aF0.4
aF0.667
aF0.222
aF0.571
aF0.889
aF0.0
aF0.0
aF0.571
aF0.571
aF0.571
aF0.0
aF0.667
aF0.182
aF0.5
aF0.571
aF0.286
aF0.5
aF0.286
aF0.286
aasS'Accuracy'
p33
(lp34
(lp35
g6
aF0.0
aF0.0
aF0.0
aF0.0
aF0.0
aF0.0
aF0.0
aF0.0
aF0.0
aF0.0
aF0.0
aF0.0
aF0.0
aF0.0
aF0.0
aF0.0
aF0.0
aF0.0
aF0.0
aF0.0
aF0.0
aF0.0
aF0.0
aF0.0
aF0.0
aa(lp36
g8
aF0.0
aF0.0
aF0.0
aF0.0
aF0.0
aF0.0
aF0.0
aF0.0
aF0.0
aF0.0
aF0.0
aF0.0
aF0.0
aF0.0
aF0.0
aF0.0
aF0.0
aF0.0
aF0.0
aF0.0
aF0.0
aF0.0
aF0.0
aF0.854
aF0.0
aa(lp37
g10
aF0.571
aF0.537
aF0.512
aF0.463
aF0.45
aF0.571
aF0.488
aF0.366
aF0.439
aF0.65
aF0.381
aF0.341
aF0.683
aF0.439
aF0.6
aF0.548
aF0.61
aF0.61
aF0.341
aF0.4
aF0.405
aF0.537
aF0.561
aF0.463
aF0.6
aa(lp38
g12
aF0.929
aF0.0
aF0.0
aF0.0
aF0.0
aF0.0
aF0.0
aF0.951
aF0.902
aF0.925
aF0.929
aF0.0
aF0.0
aF0.951
aF0.975
aF0.0
aF0.0
aF0.927
aF0.0
aF0.925
aF0.0
aF0.0
aF0.0
aF0.927
aF0.95
aa(lp39
g14
aF0.0
aF0.0
aF0.0
aF0.951
aF0.0
aF0.0
aF0.927
aF0.0
aF0.0
aF0.0
aF0.905
aF0.0
aF0.0
aF0.0
aF0.0
aF0.0
aF0.927
aF0.0
aF0.0
aF0.9
aF0.0
aF0.0
aF0.0
aF0.927
aF0.0
aa(lp40
g16
aF0.881
aF0.0
aF0.0
aF0.951
aF0.925
aF0.881
aF0.927
aF0.951
aF0.829
aF0.925
aF0.976
aF0.0
aF0.0
aF0.927
aF0.925
aF0.929
aF0.0
aF0.951
aF0.78
aF0.9
aF0.929
aF0.878
aF0.951
aF0.878
aF0.875
aass.