(dp0
S'poi'
p1
(dp2
S'Recall'
p3
(lp4
(lp5
S'KNN'
p6
aF0.667
aF0.688
aF0.813
aF0.813
aF0.531
aF0.667
aF0.719
aF0.688
aF0.625
aF0.906
aF0.818
aF0.688
aF0.625
aF0.75
aF0.656
aF0.818
aF0.531
aF0.688
aF0.75
aF0.781
aF0.727
aF0.938
aF0.656
aF0.688
aF0.594
aa(lp7
S'SVM'
p8
aF0.758
aF0.781
aF0.656
aF0.656
aF0.781
aF0.667
aF0.781
aF0.656
aF0.719
aF0.781
aF0.818
aF0.719
aF0.563
aF0.781
aF0.75
aF0.758
aF0.688
aF0.688
aF0.75
aF0.844
aF0.818
aF0.875
aF0.563
aF0.719
aF0.719
aa(lp9
S'NB'
p10
aF0.939
aF0.906
aF0.906
aF0.875
aF0.813
aF0.788
aF0.938
aF0.906
aF0.844
aF1.0
aF0.909
aF0.906
aF0.938
aF0.813
aF0.906
aF0.848
aF0.844
aF0.813
aF0.938
aF1.0
aF0.97
aF1.0
aF0.844
aF0.813
aF0.844
aa(lp11
S'RF'
p12
aF0.818
aF0.75
aF0.813
aF0.75
aF0.75
aF0.818
aF0.688
aF0.75
aF0.656
aF0.844
aF0.818
aF0.813
aF0.656
aF0.781
aF0.75
aF0.818
aF0.75
aF0.813
aF0.844
aF0.813
aF0.788
aF0.875
aF0.781
aF0.75
aF0.656
aa(lp13
S'LR'
p14
aF0.667
aF0.688
aF0.625
aF0.563
aF0.813
aF0.636
aF0.75
aF0.625
aF0.594
aF0.688
aF0.758
aF0.719
aF0.5
aF0.781
aF0.688
aF0.758
aF0.594
aF0.594
aF0.781
aF0.781
aF0.788
aF0.844
aF0.469
aF0.625
aF0.688
aa(lp15
S'DT'
p16
aF0.848
aF0.625
aF0.75
aF0.688
aF0.719
aF0.727
aF0.781
aF0.75
aF0.719
aF0.781
aF0.667
aF0.656
aF0.656
aF0.656
aF0.688
aF0.636
aF0.719
aF0.75
aF0.813
aF0.719
aF0.909
aF0.781
aF0.594
aF0.594
aF0.563
aasS'Precision'
p17
(lp18
(lp19
g6
aF0.688
aF0.667
aF0.703
aF0.703
aF0.68
aF0.55
aF0.676
aF0.733
aF0.625
aF0.806
aF0.75
aF0.667
aF0.714
aF0.727
aF0.583
aF0.818
aF0.63
aF0.647
aF0.706
aF0.641
aF0.6
aF0.789
aF0.656
aF0.733
aF0.655
aa(lp20
g8
aF0.758
aF0.625
aF0.724
aF0.568
aF0.658
aF0.55
aF0.658
aF0.677
aF0.697
aF0.758
aF0.771
aF0.657
aF0.621
aF0.676
aF0.558
aF0.714
aF0.733
aF0.595
aF0.686
aF0.614
aF0.692
aF0.667
aF0.581
aF0.742
aF0.676
aa(lp21
g10
aF0.47
aF0.439
aF0.42
aF0.424
aF0.433
aF0.4
aF0.469
aF0.426
aF0.422
aF0.464
aF0.4
aF0.439
aF0.508
aF0.419
aF0.439
aF0.406
aF0.45
aF0.419
aF0.492
aF0.41
aF0.492
aF0.432
aF0.443
aF0.419
aF0.409
aa(lp22
g12
aF0.771
aF0.615
aF0.743
aF0.686
aF0.774
aF0.659
aF0.647
aF0.8
aF0.677
aF0.818
aF0.871
aF0.722
aF0.618
aF0.735
aF0.585
aF0.818
aF0.774
aF0.619
aF0.818
aF0.722
aF0.765
aF0.778
aF0.714
aF0.828
aF0.677
aa(lp23
g14
aF0.815
aF0.611
aF0.769
aF0.529
aF0.65
aF0.583
aF0.686
aF0.741
aF0.704
aF0.71
aF0.781
aF0.639
aF0.696
aF0.714
aF0.564
aF0.758
aF0.704
aF0.576
aF0.735
aF0.658
aF0.684
aF0.675
aF0.6
aF0.741
aF0.759
aa(lp24
g16
aF0.778
aF0.588
aF0.706
aF0.733
aF0.676
aF0.615
aF0.833
aF0.774
aF0.793
aF0.833
aF0.759
aF0.778
aF0.618
aF0.7
aF0.579
aF0.677
aF0.742
aF0.615
aF0.813
aF0.719
aF0.698
aF0.758
aF0.792
aF0.655
aF0.667
aasS'F_score'
p25
(lp26
(lp27
g6
aF0.677
aF0.677
aF0.754
aF0.754
aF0.596
aF0.603
aF0.697
aF0.71
aF0.625
aF0.853
aF0.783
aF0.677
aF0.667
aF0.738
aF0.618
aF0.818
aF0.576
aF0.667
aF0.727
aF0.704
aF0.658
aF0.857
aF0.656
aF0.71
aF0.623
aa(lp28
g8
aF0.758
aF0.694
aF0.689
aF0.609
aF0.714
aF0.603
aF0.714
aF0.667
aF0.708
aF0.769
aF0.794
aF0.687
aF0.59
aF0.725
aF0.64
aF0.735
aF0.71
aF0.638
aF0.716
aF0.711
aF0.75
aF0.757
aF0.571
aF0.73
aF0.697
aa(lp29
g10
aF0.626
aF0.592
aF0.574
aF0.571
aF0.565
aF0.531
aF0.625
aF0.58
aF0.563
aF0.634
aF0.556
aF0.592
aF0.659
aF0.553
aF0.592
aF0.549
aF0.587
aF0.553
aF0.645
aF0.582
aF0.653
aF0.604
aF0.581
aF0.553
aF0.551
aa(lp30
g12
aF0.794
aF0.676
aF0.776
aF0.716
aF0.762
aF0.73
aF0.667
aF0.774
aF0.667
aF0.831
aF0.844
aF0.765
aF0.636
aF0.758
aF0.658
aF0.818
aF0.762
aF0.703
aF0.831
aF0.765
aF0.776
aF0.824
aF0.746
aF0.787
aF0.667
aa(lp31
g14
aF0.733
aF0.647
aF0.69
aF0.545
aF0.722
aF0.609
aF0.716
aF0.678
aF0.644
aF0.698
aF0.769
aF0.676
aF0.582
aF0.746
aF0.62
aF0.758
aF0.644
aF0.585
aF0.758
aF0.714
aF0.732
aF0.75
aF0.526
aF0.678
aF0.721
aa(lp32
g16
aF0.812
aF0.606
aF0.727
aF0.71
aF0.697
aF0.667
aF0.806
aF0.762
aF0.754
aF0.806
aF0.71
aF0.712
aF0.636
aF0.677
aF0.629
aF0.656
aF0.73
aF0.676
aF0.813
aF0.719
aF0.789
aF0.769
aF0.679
aF0.623
aF0.61
aasS'Accuracy'
p33
(lp34
(lp35
g6
aF0.767
aF0.761
aF0.807
aF0.807
aF0.739
aF0.678
aF0.773
aF0.795
aF0.727
aF0.886
aF0.833
aF0.761
aF0.773
aF0.807
aF0.705
aF0.867
aF0.716
aF0.75
aF0.795
aF0.761
aF0.722
aF0.886
aF0.75
aF0.795
aF0.739
aa(lp36
g8
aF0.822
aF0.75
aF0.784
aF0.693
aF0.773
aF0.678
aF0.773
aF0.761
aF0.784
aF0.83
aF0.844
aF0.761
aF0.716
aF0.784
aF0.693
aF0.8
aF0.795
aF0.716
aF0.784
aF0.75
aF0.8
aF0.795
aF0.693
aF0.807
aF0.773
aa(lp37
g10
aF0.589
aF0.545
aF0.511
aF0.523
aF0.545
aF0.489
aF0.591
aF0.523
aF0.523
aF0.58
aF0.467
aF0.545
aF0.648
aF0.523
aF0.545
aF0.489
aF0.568
aF0.523
aF0.625
aF0.477
aF0.622
aF0.523
aF0.557
aF0.523
aF0.5
aa(lp38
g12
aF0.844
aF0.739
aF0.83
aF0.784
aF0.83
aF0.778
aF0.75
aF0.841
aF0.761
aF0.875
aF0.889
aF0.818
aF0.727
aF0.818
aF0.716
aF0.867
aF0.83
aF0.75
aF0.875
aF0.818
aF0.833
aF0.864
aF0.807
aF0.852
aF0.761
aa(lp39
g14
aF0.822
aF0.727
aF0.795
aF0.659
aF0.773
aF0.7
aF0.784
aF0.784
aF0.761
aF0.784
aF0.833
aF0.75
aF0.739
aF0.807
aF0.693
aF0.822
aF0.761
aF0.693
aF0.818
aF0.773
aF0.789
aF0.795
aF0.693
aF0.784
aF0.807
aa(lp40
g16
aF0.856
aF0.705
aF0.795
aF0.795
aF0.773
aF0.733
aF0.864
aF0.83
aF0.83
aF0.864
aF0.8
aF0.807
aF0.727
aF0.773
aF0.705
aF0.756
aF0.807
aF0.739
aF0.864
aF0.795
aF0.822
aF0.83
aF0.795
aF0.739
aF0.739
aass.