(dp0
S'prop'
p1
(dp2
S'Recall'
p3
(lp4
(lp5
S'KNN'
p6
aF0.992
aF0.983
aF1.0
aF0.992
aF1.0
aF1.0
aF1.0
aF0.966
aF1.0
aF1.0
aF1.0
aF1.0
aF1.0
aF1.0
aF1.0
aF1.0
aF0.983
aF1.0
aF0.983
aF1.0
aF1.0
aF1.0
aF1.0
aF0.992
aF1.0
aa(lp7
S'SVM'
p8
aF1.0
aF1.0
aF1.0
aF1.0
aF1.0
aF1.0
aF1.0
aF1.0
aF1.0
aF1.0
aF1.0
aF1.0
aF1.0
aF1.0
aF1.0
aF1.0
aF1.0
aF1.0
aF1.0
aF1.0
aF1.0
aF1.0
aF1.0
aF1.0
aF1.0
aa(lp9
S'NB'
p10
aF0.63
aF0.63
aF0.546
aF0.529
aF0.576
aF0.563
aF0.622
aF0.538
aF0.605
aF0.636
aF0.613
aF0.58
aF0.689
aF0.471
aF0.585
aF0.487
aF0.571
aF0.639
aF0.597
aF0.653
aF0.546
aF0.555
aF0.58
aF0.697
aF0.551
aa(lp11
S'RF'
p12
aF0.958
aF0.933
aF0.933
aF0.966
aF0.992
aF0.975
aF0.975
aF0.983
aF0.95
aF0.949
aF0.95
aF0.966
aF0.941
aF0.966
aF0.983
aF0.975
aF0.975
aF0.983
aF0.941
aF0.983
aF0.983
aF0.992
aF0.95
aF0.983
aF0.975
aa(lp13
S'LR'
p14
aF0.992
aF0.958
aF0.975
aF0.983
aF1.0
aF1.0
aF1.0
aF0.983
aF0.941
aF0.966
aF0.975
aF0.992
aF0.983
aF1.0
aF0.992
aF1.0
aF0.983
aF0.983
aF0.966
aF0.992
aF0.992
aF0.975
aF0.992
aF0.975
aF1.0
aa(lp15
S'DT'
p16
aF0.933
aF0.916
aF0.899
aF0.891
aF0.958
aF0.891
aF0.924
aF0.849
aF0.933
aF0.898
aF0.916
aF0.924
aF0.958
aF0.95
aF0.958
aF0.933
aF0.941
aF0.933
aF0.874
aF0.915
aF0.975
aF0.916
aF0.933
aF0.95
aF0.915
aasS'Precision'
p17
(lp18
(lp19
g6
aF0.894
aF0.9
aF0.902
aF0.901
aF0.901
aF0.895
aF0.902
aF0.898
aF0.902
aF0.901
aF0.895
aF0.902
aF0.902
aF0.902
aF0.901
aF0.895
aF0.9
aF0.902
aF0.9
aF0.901
aF0.895
aF0.902
aF0.902
aF0.901
aF0.901
aa(lp20
g8
aF0.895
aF0.902
aF0.902
aF0.902
aF0.901
aF0.895
aF0.902
aF0.902
aF0.902
aF0.901
aF0.895
aF0.902
aF0.902
aF0.902
aF0.901
aF0.895
aF0.902
aF0.902
aF0.902
aF0.901
aF0.895
aF0.902
aF0.902
aF0.902
aF0.901
aa(lp21
g10
aF0.962
aF0.904
aF0.97
aF0.955
aF0.958
aF0.931
aF0.937
aF0.955
aF0.935
aF0.962
aF0.961
aF0.945
aF0.932
aF0.966
aF0.932
aF0.967
aF0.919
aF0.95
aF0.947
aF0.951
aF0.97
aF0.917
aF0.945
aF0.933
aF0.97
aa(lp22
g12
aF0.919
aF0.902
aF0.902
aF0.913
aF0.921
aF0.913
aF0.913
aF0.907
aF0.911
aF0.933
aF0.89
aF0.927
aF0.926
aF0.913
aF0.921
aF0.906
aF0.921
aF0.914
aF0.918
aF0.921
aF0.9
aF0.922
aF0.904
aF0.914
aF0.943
aa(lp23
g14
aF0.894
aF0.898
aF0.899
aF0.907
aF0.901
aF0.895
aF0.902
aF0.9
aF0.896
aF0.912
aF0.892
aF0.901
aF0.907
aF0.902
aF0.907
aF0.902
aF0.9
aF0.907
aF0.898
aF0.9
aF0.901
aF0.906
aF0.908
aF0.899
aF0.901
aa(lp24
g16
aF0.91
aF0.901
aF0.922
aF0.93
aF0.934
aF0.906
aF0.932
aF0.944
aF0.933
aF0.922
aF0.916
aF0.932
aF0.919
aF0.926
aF0.934
aF0.949
aF0.918
aF0.933
aF0.937
aF0.931
aF0.913
aF0.94
aF0.91
aF0.934
aF0.939
aasS'F_score'
p25
(lp26
(lp27
g6
aF0.94
aF0.94
aF0.948
aF0.944
aF0.948
aF0.944
aF0.948
aF0.931
aF0.948
aF0.948
aF0.944
aF0.948
aF0.948
aF0.948
aF0.948
aF0.944
aF0.94
aF0.948
aF0.94
aF0.948
aF0.944
aF0.948
aF0.948
aF0.944
aF0.948
aa(lp28
g8
aF0.944
aF0.948
aF0.948
aF0.948
aF0.948
aF0.944
aF0.948
aF0.948
aF0.948
aF0.948
aF0.944
aF0.948
aF0.948
aF0.948
aF0.948
aF0.944
aF0.948
aF0.948
aF0.948
aF0.948
aF0.944
aF0.948
aF0.948
aF0.948
aF0.948
aa(lp29
g10
aF0.761
aF0.743
aF0.699
aF0.681
aF0.72
aF0.702
aF0.747
aF0.688
aF0.735
aF0.765
aF0.749
aF0.719
aF0.792
aF0.633
aF0.719
aF0.648
aF0.705
aF0.764
aF0.732
aF0.774
aF0.699
aF0.691
aF0.719
aF0.798
aF0.703
aa(lp30
g12
aF0.938
aF0.917
aF0.917
aF0.939
aF0.955
aF0.943
aF0.943
aF0.944
aF0.93
aF0.941
aF0.919
aF0.947
aF0.933
aF0.939
aF0.951
aF0.939
aF0.947
aF0.947
aF0.929
aF0.951
aF0.94
aF0.955
aF0.926
aF0.947
aF0.958
aa(lp31
g14
aF0.94
aF0.927
aF0.935
aF0.944
aF0.948
aF0.944
aF0.948
aF0.94
aF0.918
aF0.938
aF0.932
aF0.944
aF0.944
aF0.948
aF0.947
aF0.948
aF0.94
aF0.944
aF0.931
aF0.944
aF0.944
aF0.939
aF0.948
aF0.935
aF0.948
aa(lp32
g16
aF0.921
aF0.908
aF0.911
aF0.91
aF0.946
aF0.898
aF0.928
aF0.894
aF0.933
aF0.91
aF0.916
aF0.928
aF0.938
aF0.938
aF0.946
aF0.941
aF0.929
aF0.933
aF0.904
aF0.923
aF0.943
aF0.928
aF0.921
aF0.942
aF0.927
aasS'Accuracy'
p33
(lp34
(lp35
g6
aF0.887
aF0.886
aF0.902
aF0.894
aF0.901
aF0.895
aF0.902
aF0.871
aF0.902
aF0.901
aF0.895
aF0.902
aF0.902
aF0.902
aF0.901
aF0.895
aF0.886
aF0.902
aF0.886
aF0.901
aF0.895
aF0.902
aF0.902
aF0.894
aF0.901
aa(lp36
g8
aF0.895
aF0.902
aF0.902
aF0.902
aF0.901
aF0.895
aF0.902
aF0.902
aF0.902
aF0.901
aF0.895
aF0.902
aF0.902
aF0.902
aF0.901
aF0.895
aF0.902
aF0.902
aF0.902
aF0.901
aF0.895
aF0.902
aF0.902
aF0.902
aF0.901
aa(lp37
g10
aF0.647
aF0.606
aF0.576
aF0.553
aF0.595
aF0.571
aF0.621
aF0.561
aF0.606
aF0.649
aF0.632
aF0.591
aF0.674
aF0.508
aF0.588
aF0.526
aF0.568
aF0.644
aF0.606
aF0.656
aF0.579
aF0.553
aF0.591
aF0.682
aF0.58
aa(lp38
g12
aF0.887
aF0.848
aF0.848
aF0.886
aF0.916
aF0.895
aF0.894
aF0.894
aF0.871
aF0.893
aF0.85
aF0.902
aF0.879
aF0.886
aF0.908
aF0.887
aF0.902
aF0.902
aF0.871
aF0.908
aF0.887
aF0.917
aF0.864
aF0.902
aF0.924
aa(lp39
g14
aF0.887
aF0.864
aF0.879
aF0.894
aF0.901
aF0.895
aF0.902
aF0.886
aF0.848
aF0.885
aF0.872
aF0.894
aF0.894
aF0.902
aF0.901
aF0.902
aF0.886
aF0.894
aF0.871
aF0.893
aF0.895
aF0.886
aF0.902
aF0.879
aF0.901
aa(lp40
g16
aF0.857
aF0.833
aF0.841
aF0.841
aF0.901
aF0.82
aF0.871
aF0.818
aF0.879
aF0.84
aF0.85
aF0.871
aF0.886
aF0.886
aF0.901
aF0.895
aF0.871
aF0.879
aF0.833
aF0.863
aF0.895
aF0.871
aF0.856
aF0.894
aF0.87
aass.