(dp0
S'log4j'
p1
(dp2
S'False_alarm'
p3
(lp4
(lp5
S'KNN'
p6
aF0.5
aF0.5
aF1.0
aF1.0
aF0.0
aF1.0
aF1.0
aF0.0
aF0.0
aF1.0
aF1.0
aF0.5
aF1.0
aF0.5
aF0.5
aF0.0
aF0.0
aF0.0
aF1.0
aF0.0
aF0.5
aF0.0
aF1.0
aF0.5
aF0.5
aF1.0
aF0.0
aF0.0
aF0.0
aF0.0
aF0.5
aF0.5
aF0.5
aF0.0
aF0.5
aF0.5
aF1.0
aF0.0
aF1.0
aF1.0
aF0.5
aF1.0
aF0.5
aF0.5
aF1.0
aF0.0
aF1.0
aF1.0
aF0.0
aF1.0
aF0.5
aF0.0
aF0.5
aF0.5
aF1.0
aF0.5
aF1.0
aF0.0
aF1.0
aF0.0
aF0.0
aF0.0
aF0.0
aF0.5
aF0.0
aF0.5
aF0.0
aF1.0
aF1.0
aF1.0
aF0.5
aF0.5
aF0.5
aF0.0
aF1.0
aF1.0
aF0.0
aF0.0
aF1.0
aF1.0
aF0.5
aF1.0
aF0.5
aF1.0
aF0.0
aF0.5
aF0.0
aF0.0
aF0.0
aF1.0
aF0.0
aF1.0
aF0.0
aF0.5
aF0.5
aF0.5
aF0.0
aF1.0
aF0.0
aF0.0
aa(lp7
S'SVM'
p8
aF0.5
aF0.5
aF1.0
aF1.0
aF0.0
aF0.5
aF1.0
aF0.0
aF0.0
aF0.0
aF0.0
aF1.0
aF0.0
aF0.0
aF1.0
aF1.0
aF1.0
aF0.0
aF0.0
aF0.0
aF1.0
aF1.0
aF0.5
aF0.0
aF1.0
aF0.0
aF0.0
aF1.0
aF0.0
aF0.0
aF1.0
aF1.0
aF1.0
aF0.5
aF0.5
aF0.0
aF0.0
aF0.0
aF0.0
aF0.0
aF0.5
aF0.5
aF0.5
aF0.5
aF1.0
aF0.5
aF0.0
aF1.0
aF0.0
aF1.0
aF1.0
aF0.5
aF0.5
aF0.5
aF0.0
aF1.0
aF1.0
aF1.0
aF0.0
aF0.0
aF0.5
aF1.0
aF0.0
aF0.0
aF0.5
aF0.0
aF0.0
aF0.0
aF0.0
aF1.0
aF0.5
aF0.5
aF0.5
aF0.5
aF1.0
aF0.5
aF1.0
aF1.0
aF0.0
aF1.0
aF0.5
aF0.5
aF0.5
aF0.0
aF0.5
aF0.5
aF1.0
aF0.0
aF0.0
aF0.0
aF0.5
aF1.0
aF0.5
aF0.0
aF0.5
aF1.0
aF0.0
aF0.0
aF1.0
aF1.0
aa(lp9
S'NB'
p10
aF0.0
aF0.0
aF0.5
aF0.5
aF0.0
aF0.0
aF0.0
aF0.0
aF1.0
aF1.0
aF0.5
aF0.0
aF0.0
aF0.5
aF0.0
aF0.5
aF0.0
aF0.0
aF0.0
aF0.0
aF0.0
aF0.0
aF0.5
aF0.0
aF0.5
aF0.0
aF0.0
aF1.0
aF0.0
aF0.0
aF0.0
aF0.0
aF0.5
aF0.5
aF0.0
aF0.5
aF0.0
aF0.0
aF0.0
aF0.0
aF0.0
aF0.5
aF0.0
aF1.0
aF0.5
aF0.0
aF0.0
aF0.0
aF0.0
aF0.0
aF0.5
aF0.5
aF0.0
aF0.0
aF0.0
aF0.5
aF0.0
aF0.0
aF0.0
aF0.0
aF0.0
aF0.0
aF0.5
aF0.5
aF0.0
aF0.0
aF0.0
aF0.0
aF0.0
aF1.0
aF0.0
aF0.0
aF0.5
aF0.5
aF0.5
aF0.0
aF0.0
aF0.0
aF0.0
aF0.0
aF0.0
aF0.0
aF0.0
aF0.0
aF0.0
aF0.5
aF0.0
aF1.0
aF1.0
aF0.0
aF0.0
aF0.0
aF0.0
aF0.0
aF0.5
aF0.5
aF0.0
aF0.0
aF1.0
aF0.0
aa(lp11
S'RF'
p12
aF1.0
aF1.0
aF1.0
aF1.0
aF0.0
aF1.0
aF1.0
aF1.0
aF1.0
aF1.0
aF1.0
aF0.0
aF1.0
aF0.5
aF0.5
aF1.0
aF1.0
aF1.0
aF1.0
aF0.0
aF0.5
aF0.5
aF1.0
aF1.0
aF1.0
aF1.0
aF1.0
aF1.0
aF1.0
aF0.0
aF0.5
aF0.5
aF0.5
aF0.0
aF0.5
aF1.0
aF1.0
aF0.0
aF1.0
aF1.0
aF0.5
aF1.0
aF1.0
aF0.0
aF0.5
aF1.0
aF1.0
aF1.0
aF0.0
aF1.0
aF0.0
aF0.5
aF0.5
aF1.0
aF1.0
aF1.0
aF0.0
aF0.0
aF0.0
aF1.0
aF1.0
aF1.0
aF1.0
aF1.0
aF1.0
aF0.5
aF0.0
aF1.0
aF0.0
aF1.0
aF0.5
aF1.0
aF0.0
aF0.5
aF0.5
aF0.5
aF1.0
aF1.0
aF1.0
aF0.0
aF0.5
aF1.0
aF1.0
aF0.5
aF0.5
aF0.5
aF0.0
aF1.0
aF1.0
aF1.0
aF0.5
aF1.0
aF0.5
aF0.5
aF0.5
aF1.0
aF1.0
aF1.0
aF1.0
aF0.0
aa(lp13
S'LR'
p14
aF1.0
aF0.0
aF0.5
aF0.5
aF0.5
aF0.0
aF1.0
aF0.0
aF1.0
aF1.0
aF1.0
aF0.0
aF0.5
aF1.0
aF0.5
aF1.0
aF0.0
aF0.0
aF0.0
aF1.0
aF0.0
aF0.5
aF0.5
aF0.5
aF0.0
aF0.5
aF0.0
aF0.0
aF1.0
aF1.0
aF0.5
aF0.5
aF0.0
aF0.0
aF1.0
aF0.5
aF0.0
aF1.0
aF1.0
aF1.0
aF0.5
aF0.5
aF0.0
aF1.0
aF0.5
aF0.0
aF1.0
aF0.0
aF1.0
aF1.0
aF0.0
aF1.0
aF0.0
aF0.5
aF0.5
aF0.5
aF0.0
aF1.0
aF0.0
aF0.0
aF0.5
aF0.5
aF1.0
aF0.0
aF0.5
aF0.5
aF1.0
aF1.0
aF0.0
aF1.0
aF0.0
aF0.5
aF0.0
aF0.5
aF0.5
aF0.5
aF1.0
aF1.0
aF0.0
aF0.0
aF0.5
aF0.5
aF0.5
aF1.0
aF0.5
aF0.0
aF1.0
aF1.0
aF1.0
aF1.0
aF0.0
aF0.5
aF1.0
aF1.0
aF0.5
aF0.0
aF0.0
aF0.0
aF1.0
aF0.0
aa(lp15
S'DT'
p16
aF0.5
aF0.0
aF0.0
aF1.0
aF0.5
aF1.0
aF0.0
aF1.0
aF1.0
aF1.0
aF0.5
aF0.5
aF1.0
aF1.0
aF0.0
aF0.5
aF1.0
aF0.0
aF1.0
aF1.0
aF0.5
aF0.5
aF0.5
aF1.0
aF0.5
aF0.5
aF1.0
aF1.0
aF0.0
aF1.0
aF0.0
aF0.0
aF0.5
aF0.5
aF1.0
aF1.0
aF0.0
aF1.0
aF1.0
aF0.0
aF1.0
aF0.5
aF0.5
aF1.0
aF0.0
aF1.0
aF0.0
aF1.0
aF1.0
aF0.0
aF1.0
aF0.5
aF0.5
aF1.0
aF1.0
aF0.0
aF0.0
aF0.0
aF0.0
aF1.0
aF1.0
aF0.5
aF0.5
aF1.0
aF0.5
aF1.0
aF1.0
aF1.0
aF0.0
aF1.0
aF0.5
aF0.5
aF0.5
aF0.0
aF1.0
aF1.0
aF1.0
aF1.0
aF1.0
aF0.0
aF0.5
aF1.0
aF0.5
aF0.5
aF0.5
aF0.5
aF0.0
aF1.0
aF1.0
aF0.0
aF0.5
aF1.0
aF0.5
aF0.0
aF0.5
aF0.5
aF1.0
aF1.0
aF1.0
aF1.0
aasS'Recall'
p17
(lp18
(lp19
g6
aF0.632
aF0.579
aF0.474
aF0.421
aF0.684
aF0.526
aF0.368
aF0.526
aF0.368
aF0.222
aF0.526
aF0.579
aF0.421
aF0.211
aF0.526
aF0.789
aF0.421
aF0.632
aF0.526
aF0.278
aF0.474
aF0.474
aF0.579
aF0.474
aF0.684
aF0.737
aF0.263
aF0.579
aF0.474
aF0.611
aF0.632
aF0.421
aF0.421
aF0.368
aF0.316
aF0.684
aF0.789
aF0.421
aF0.421
aF0.667
aF0.474
aF0.684
aF0.526
aF0.316
aF0.526
aF0.579
aF0.684
aF0.579
aF0.526
aF0.611
aF0.368
aF0.579
aF0.632
aF0.368
aF0.684
aF0.737
aF0.316
aF0.421
aF0.684
aF0.611
aF0.579
aF0.737
aF0.526
aF0.526
aF0.263
aF0.579
aF0.579
aF0.368
aF0.368
aF0.611
aF0.421
aF0.368
aF0.579
aF0.211
aF0.684
aF0.474
aF0.474
aF0.684
aF0.474
aF0.556
aF0.632
aF0.421
aF0.316
aF0.526
aF0.474
aF0.579
aF0.474
aF0.526
aF0.526
aF0.611
aF0.474
aF0.526
aF0.421
aF0.737
aF0.526
aF0.632
aF0.526
aF0.211
aF0.368
aF0.556
aa(lp20
g8
aF0.842
aF0.789
aF0.526
aF0.684
aF0.526
aF0.895
aF0.579
aF0.684
aF0.737
aF0.5
aF0.632
aF0.842
aF0.316
aF0.789
aF0.737
aF0.579
aF0.789
aF0.737
aF0.737
aF0.611
aF0.684
aF0.789
aF0.632
aF0.737
aF0.789
aF0.684
aF0.684
aF0.684
aF0.737
aF0.722
aF0.842
aF0.789
aF0.947
aF0.684
aF0.789
aF0.842
aF0.579
aF0.632
aF0.842
aF0.611
aF0.789
aF0.579
aF0.632
aF0.737
aF0.789
aF0.632
aF0.789
aF0.895
aF0.632
aF0.889
aF0.842
aF0.526
aF0.737
aF0.526
aF0.684
aF0.684
aF0.474
aF0.789
aF0.684
aF0.667
aF0.895
aF0.737
aF0.526
aF0.684
aF0.842
aF0.421
aF0.737
aF0.684
aF0.737
aF0.556
aF0.789
aF0.737
aF0.842
aF0.737
aF0.737
aF0.632
aF0.632
aF0.526
aF0.842
aF0.833
aF0.737
aF0.737
aF0.684
aF0.632
aF0.579
aF0.632
aF0.684
aF0.632
aF0.737
aF0.833
aF0.684
aF0.842
aF0.737
aF0.842
aF0.737
aF0.895
aF0.684
aF0.737
aF0.737
aF0.778
aa(lp21
g10
aF0.368
aF0.316
aF0.526
aF0.632
aF0.632
aF0.579
aF0.632
aF0.684
aF0.474
aF0.444
aF0.526
aF0.737
aF0.526
aF0.526
aF0.632
aF0.684
aF0.632
aF0.368
aF0.368
aF0.611
aF0.421
aF0.684
aF0.474
aF0.474
aF0.684
aF0.526
aF0.474
aF0.579
aF0.421
aF0.667
aF0.474
aF0.632
aF0.368
aF0.579
aF0.474
aF0.579
aF0.579
aF0.421
aF0.579
aF0.611
aF0.368
aF0.842
aF0.632
aF0.579
aF0.579
aF0.579
aF0.316
aF0.474
aF0.474
aF0.556
aF0.526
aF0.789
aF0.632
aF0.579
aF0.316
aF0.579
aF0.579
aF0.632
aF0.526
aF0.556
aF0.737
aF0.474
aF0.632
aF0.632
aF0.579
aF0.474
aF0.526
aF0.526
aF0.421
aF0.389
aF0.421
aF0.526
aF0.632
aF0.263
aF0.579
aF0.526
aF0.684
aF0.474
aF0.421
aF0.5
aF0.474
aF0.632
aF0.737
aF0.684
aF0.632
aF0.474
aF0.474
aF0.474
aF0.526
aF0.389
aF0.474
aF0.368
aF0.579
aF0.526
aF0.632
aF0.895
aF0.526
aF0.526
aF0.368
aF0.389
aa(lp22
g12
aF0.895
aF0.895
aF0.895
aF0.842
aF0.895
aF0.947
aF0.895
aF1.0
aF0.947
aF0.889
aF0.947
aF1.0
aF0.895
aF0.895
aF1.0
aF0.842
aF0.947
aF0.895
aF1.0
aF0.889
aF0.842
aF1.0
aF0.895
aF0.947
aF0.895
aF0.947
aF1.0
aF0.947
aF0.895
aF0.833
aF0.895
aF0.895
aF0.737
aF0.947
aF0.947
aF0.842
aF0.947
aF1.0
aF1.0
aF0.944
aF0.947
aF0.632
aF0.895
aF0.947
aF1.0
aF0.842
aF1.0
aF0.947
aF0.947
aF0.944
aF0.947
aF0.842
aF1.0
aF0.737
aF0.895
aF0.842
aF0.842
aF0.895
aF0.947
aF0.889
aF0.895
aF0.895
aF1.0
aF1.0
aF0.895
aF0.895
aF1.0
aF1.0
aF0.895
aF0.833
aF0.895
aF0.947
aF0.895
aF0.947
aF0.842
aF0.947
aF0.947
aF0.842
aF0.947
aF0.778
aF0.947
aF1.0
aF0.842
aF0.789
aF0.789
aF0.947
aF0.947
aF0.947
aF0.842
aF0.889
aF0.842
aF0.789
aF0.895
aF1.0
aF1.0
aF0.895
aF1.0
aF0.895
aF0.947
aF0.944
aa(lp23
g14
aF0.789
aF0.895
aF0.789
aF0.789
aF0.632
aF0.632
aF0.632
aF0.632
aF0.737
aF0.778
aF0.684
aF0.789
aF0.737
aF0.632
aF0.684
aF0.842
aF0.789
aF0.579
aF0.526
aF0.778
aF0.737
aF0.947
aF0.789
aF0.684
aF0.632
aF0.789
aF0.737
aF0.737
aF0.632
aF0.722
aF0.789
aF0.684
aF0.842
aF0.474
aF0.842
aF0.632
aF0.632
aF0.526
aF0.789
aF0.833
aF0.737
aF0.684
aF0.842
aF0.789
aF0.842
aF0.526
aF0.789
aF0.579
aF0.789
aF0.778
aF0.684
aF0.789
aF0.789
aF0.842
aF0.737
aF0.474
aF0.789
aF0.632
aF0.526
aF0.611
aF0.789
aF0.684
aF0.842
aF0.579
aF0.632
aF0.684
aF0.895
aF0.684
aF0.737
aF0.611
aF0.789
aF0.737
aF0.737
aF0.368
aF0.684
aF0.842
aF0.737
aF0.579
aF0.684
aF0.778
aF0.684
aF0.632
aF0.632
aF0.842
aF0.579
aF0.474
aF0.842
aF0.684
aF0.842
aF0.667
aF0.632
aF0.737
aF0.789
aF0.789
aF0.526
aF0.684
aF0.526
aF0.789
aF0.842
aF0.722
aa(lp24
g16
aF0.947
aF0.947
aF0.789
aF0.947
aF1.0
aF0.737
aF0.684
aF0.947
aF0.789
aF0.889
aF0.895
aF0.737
aF0.947
aF0.947
aF0.842
aF0.842
aF0.947
aF0.947
aF0.789
aF1.0
aF0.842
aF0.842
aF1.0
aF0.737
aF0.895
aF0.842
aF0.789
aF0.895
aF0.895
aF0.889
aF0.842
aF1.0
aF0.895
aF0.947
aF0.895
aF1.0
aF0.947
aF0.789
aF0.737
aF0.833
aF0.684
aF0.895
aF0.895
aF0.842
aF0.842
aF0.842
aF0.789
aF0.789
aF0.947
aF0.889
aF0.842
aF1.0
aF1.0
aF0.842
aF0.895
aF0.895
aF0.632
aF0.947
aF0.895
aF0.833
aF0.895
aF0.947
aF0.737
aF1.0
aF0.842
aF0.895
aF0.947
aF0.737
aF0.895
aF1.0
aF0.842
aF0.789
aF0.895
aF0.947
aF0.895
aF1.0
aF0.842
aF0.947
aF0.895
aF0.944
aF0.947
aF0.947
aF0.895
aF0.842
aF0.947
aF0.842
aF0.947
aF0.895
aF0.789
aF0.778
aF0.947
aF0.895
aF0.895
aF0.947
aF0.737
aF0.947
aF0.789
aF0.789
aF0.895
aF0.833
aasS'Precision'
p25
(lp26
(lp27
g6
aF0.923
aF0.917
aF0.818
aF0.8
aF1.0
aF0.833
aF0.875
aF1.0
aF1.0
aF0.8
aF0.833
aF0.917
aF0.8
aF0.8
aF0.909
aF1.0
aF1.0
aF1.0
aF0.909
aF1.0
aF0.9
aF1.0
aF0.846
aF0.9
aF0.929
aF0.875
aF1.0
aF1.0
aF1.0
aF1.0
aF0.923
aF0.889
aF0.889
aF1.0
aF0.857
aF0.929
aF0.938
aF1.0
aF0.889
aF0.923
aF0.9
aF0.867
aF0.909
aF0.857
aF0.833
aF1.0
aF0.929
aF0.917
aF1.0
aF0.917
aF0.875
aF1.0
aF0.923
aF0.875
aF0.867
aF0.933
aF0.857
aF1.0
aF0.929
aF1.0
aF1.0
aF1.0
aF1.0
aF0.909
aF1.0
aF0.917
aF1.0
aF0.875
aF0.875
aF0.917
aF0.889
aF0.875
aF0.917
aF1.0
aF0.867
aF0.818
aF1.0
aF1.0
aF0.9
aF0.909
aF0.923
aF0.8
aF0.857
aF0.833
aF1.0
aF0.917
aF1.0
aF1.0
aF1.0
aF0.917
aF1.0
aF0.833
aF1.0
aF0.933
aF0.909
aF0.923
aF1.0
aF0.8
aF1.0
aF1.0
aa(lp28
g8
aF0.941
aF0.938
aF0.833
aF0.867
aF1.0
aF0.944
aF0.917
aF1.0
aF1.0
aF1.0
aF1.0
aF0.889
aF1.0
aF1.0
aF0.875
aF0.846
aF0.938
aF1.0
aF1.0
aF1.0
aF0.867
aF0.882
aF0.923
aF1.0
aF0.882
aF1.0
aF1.0
aF0.929
aF1.0
aF1.0
aF0.889
aF0.882
aF0.9
aF0.929
aF0.938
aF1.0
aF1.0
aF1.0
aF1.0
aF1.0
aF0.938
aF0.917
aF0.923
aF0.933
aF0.882
aF0.923
aF1.0
aF0.944
aF1.0
aF0.941
aF0.889
aF0.909
aF0.933
aF0.909
aF1.0
aF0.867
aF0.9
aF0.938
aF1.0
aF1.0
aF0.944
aF0.875
aF1.0
aF1.0
aF0.941
aF1.0
aF1.0
aF1.0
aF1.0
aF0.909
aF0.938
aF0.933
aF0.941
aF0.933
aF0.875
aF0.923
aF0.923
aF0.909
aF1.0
aF0.938
aF0.933
aF0.933
aF0.929
aF1.0
aF0.917
aF0.923
aF0.929
aF1.0
aF1.0
aF1.0
aF0.929
aF0.889
aF0.933
aF1.0
aF0.933
aF0.895
aF1.0
aF1.0
aF0.933
aF0.933
aa(lp29
g10
aF1.0
aF1.0
aF0.909
aF0.923
aF1.0
aF1.0
aF1.0
aF1.0
aF0.9
aF0.889
aF0.909
aF1.0
aF1.0
aF0.909
aF1.0
aF0.929
aF1.0
aF1.0
aF1.0
aF1.0
aF1.0
aF1.0
aF0.9
aF1.0
aF0.929
aF1.0
aF1.0
aF0.917
aF1.0
aF1.0
aF1.0
aF1.0
aF0.875
aF0.917
aF1.0
aF0.917
aF1.0
aF1.0
aF1.0
aF1.0
aF1.0
aF0.941
aF1.0
aF0.846
aF0.917
aF1.0
aF1.0
aF1.0
aF1.0
aF1.0
aF0.909
aF0.938
aF1.0
aF1.0
aF1.0
aF0.917
aF1.0
aF1.0
aF1.0
aF1.0
aF1.0
aF1.0
aF0.923
aF0.923
aF1.0
aF1.0
aF1.0
aF1.0
aF1.0
aF0.875
aF1.0
aF1.0
aF0.923
aF0.833
aF0.917
aF1.0
aF1.0
aF1.0
aF1.0
aF1.0
aF1.0
aF1.0
aF1.0
aF1.0
aF1.0
aF0.9
aF1.0
aF0.9
aF0.909
aF1.0
aF1.0
aF1.0
aF1.0
aF1.0
aF0.923
aF0.944
aF1.0
aF1.0
aF0.875
aF1.0
aa(lp30
g12
aF0.895
aF0.895
aF0.895
aF0.889
aF1.0
aF0.9
aF0.944
aF0.95
aF0.947
aF0.941
aF0.9
aF1.0
aF0.895
aF0.944
aF0.95
aF0.889
aF0.947
aF0.944
aF0.95
aF1.0
aF0.941
aF0.95
aF0.895
aF0.9
aF0.895
aF0.9
aF0.95
aF0.947
aF0.944
aF1.0
aF0.944
aF0.944
aF0.933
aF1.0
aF0.947
aF0.889
aF0.947
aF1.0
aF0.95
aF0.944
aF0.947
aF0.857
aF0.895
aF1.0
aF0.95
aF0.889
aF0.95
aF0.947
aF1.0
aF0.944
aF1.0
aF0.941
aF0.95
aF0.875
aF0.895
aF0.889
aF1.0
aF1.0
aF1.0
aF0.941
aF0.895
aF0.895
aF0.905
aF0.905
aF0.895
aF0.944
aF1.0
aF0.95
aF1.0
aF0.938
aF0.944
aF0.9
aF1.0
aF0.947
aF0.941
aF0.947
aF0.947
aF0.941
aF0.947
aF1.0
aF0.947
aF0.905
aF0.889
aF0.938
aF0.938
aF0.947
aF1.0
aF0.947
aF0.941
aF0.941
aF0.941
aF0.882
aF0.944
aF0.95
aF0.95
aF0.895
aF0.95
aF0.944
aF0.947
aF1.0
aa(lp31
g14
aF0.882
aF1.0
aF0.938
aF0.938
aF0.923
aF1.0
aF0.923
aF1.0
aF0.933
aF0.933
aF0.867
aF1.0
aF0.933
aF0.857
aF0.929
aF0.889
aF1.0
aF1.0
aF1.0
aF0.933
aF1.0
aF0.947
aF0.938
aF0.929
aF1.0
aF0.938
aF1.0
aF1.0
aF0.923
aF0.929
aF0.938
aF0.929
aF1.0
aF1.0
aF0.889
aF0.923
aF1.0
aF0.909
aF0.938
aF0.938
aF0.933
aF0.929
aF1.0
aF0.882
aF0.941
aF1.0
aF0.938
aF1.0
aF0.938
aF0.933
aF1.0
aF0.882
aF1.0
aF0.941
aF0.933
aF0.9
aF1.0
aF0.923
aF1.0
aF1.0
aF0.938
aF0.929
aF0.889
aF1.0
aF0.923
aF0.929
aF0.944
aF0.929
aF1.0
aF0.917
aF1.0
aF0.933
aF1.0
aF0.875
aF0.929
aF0.941
aF0.933
aF0.917
aF1.0
aF1.0
aF0.929
aF0.923
aF0.923
aF0.889
aF0.917
aF1.0
aF0.941
aF0.929
aF0.941
aF0.923
aF1.0
aF0.933
aF0.882
aF0.882
aF0.909
aF1.0
aF1.0
aF1.0
aF0.941
aF1.0
aa(lp32
g16
aF0.947
aF1.0
aF1.0
aF0.9
aF0.95
aF0.875
aF1.0
aF0.947
aF0.938
aF0.941
aF0.944
aF0.933
aF0.9
aF0.9
aF1.0
aF0.941
aF0.947
aF1.0
aF0.938
aF0.947
aF0.941
aF0.941
aF0.95
aF0.875
aF0.944
aF0.941
aF0.938
aF0.944
aF1.0
aF0.941
aF1.0
aF1.0
aF0.944
aF0.947
aF0.895
aF0.905
aF1.0
aF0.938
aF0.933
aF1.0
aF0.867
aF0.944
aF0.944
aF0.889
aF1.0
aF0.889
aF1.0
aF0.938
aF0.947
aF1.0
aF0.889
aF0.95
aF0.95
aF0.889
aF0.895
aF1.0
aF1.0
aF1.0
aF1.0
aF0.938
aF0.895
aF0.947
aF0.933
aF0.905
aF0.941
aF0.895
aF0.947
aF0.933
aF1.0
aF0.947
aF0.941
aF0.938
aF0.944
aF1.0
aF0.895
aF0.905
aF0.941
aF0.947
aF0.944
aF1.0
aF0.947
aF0.9
aF0.944
aF0.941
aF0.947
aF0.941
aF1.0
aF0.944
aF0.938
aF1.0
aF0.947
aF0.895
aF0.944
aF1.0
aF0.933
aF0.947
aF0.938
aF0.938
aF0.944
aF0.938
aasS'F_score'
p33
(lp34
(lp35
g6
aF0.75
aF0.71
aF0.6
aF0.552
aF0.813
aF0.645
aF0.519
aF0.69
aF0.538
aF0.348
aF0.645
aF0.71
aF0.552
aF0.333
aF0.667
aF0.882
aF0.593
aF0.774
aF0.667
aF0.435
aF0.621
aF0.643
aF0.688
aF0.621
aF0.788
aF0.8
aF0.417
aF0.733
aF0.643
aF0.759
aF0.75
aF0.571
aF0.571
aF0.538
aF0.462
aF0.788
aF0.857
aF0.593
aF0.571
aF0.774
aF0.621
aF0.765
aF0.667
aF0.462
aF0.645
aF0.733
aF0.788
aF0.71
aF0.69
aF0.733
aF0.519
aF0.733
aF0.75
aF0.519
aF0.765
aF0.824
aF0.462
aF0.593
aF0.788
aF0.759
aF0.733
aF0.848
aF0.69
aF0.667
aF0.417
aF0.71
aF0.733
aF0.519
aF0.519
aF0.733
aF0.571
aF0.519
aF0.71
aF0.348
aF0.765
aF0.6
aF0.643
aF0.813
aF0.621
aF0.69
aF0.75
aF0.552
aF0.462
aF0.645
aF0.643
aF0.71
aF0.643
aF0.69
aF0.69
aF0.733
aF0.643
aF0.645
aF0.593
aF0.824
aF0.667
aF0.75
aF0.69
aF0.333
aF0.538
aF0.714
aa(lp36
g8
aF0.889
aF0.857
aF0.645
aF0.765
aF0.69
aF0.919
aF0.71
aF0.813
aF0.848
aF0.667
aF0.774
aF0.865
aF0.48
aF0.882
aF0.8
aF0.688
aF0.857
aF0.848
aF0.848
aF0.759
aF0.765
aF0.833
aF0.75
aF0.848
aF0.833
aF0.813
aF0.813
aF0.788
aF0.848
aF0.839
aF0.865
aF0.833
aF0.923
aF0.788
aF0.857
aF0.914
aF0.733
aF0.774
aF0.914
aF0.759
aF0.857
aF0.71
aF0.75
aF0.824
aF0.833
aF0.75
aF0.882
aF0.919
aF0.774
aF0.914
aF0.865
aF0.667
aF0.824
aF0.667
aF0.813
aF0.765
aF0.621
aF0.857
aF0.813
aF0.8
aF0.919
aF0.8
aF0.69
aF0.813
aF0.889
aF0.593
aF0.848
aF0.813
aF0.848
aF0.69
aF0.857
aF0.824
aF0.889
aF0.824
aF0.8
aF0.75
aF0.75
aF0.667
aF0.914
aF0.882
aF0.824
aF0.824
aF0.788
aF0.774
aF0.71
aF0.75
aF0.788
aF0.774
aF0.848
aF0.909
aF0.788
aF0.865
aF0.824
aF0.914
aF0.824
aF0.895
aF0.813
aF0.848
aF0.824
aF0.848
aa(lp37
g10
aF0.538
aF0.48
aF0.667
aF0.75
aF0.774
aF0.733
aF0.774
aF0.813
aF0.621
aF0.593
aF0.667
aF0.848
aF0.69
aF0.667
aF0.774
aF0.788
aF0.774
aF0.538
aF0.538
aF0.759
aF0.593
aF0.813
aF0.621
aF0.643
aF0.788
aF0.69
aF0.643
aF0.71
aF0.593
aF0.8
aF0.643
aF0.774
aF0.519
aF0.71
aF0.643
aF0.71
aF0.733
aF0.593
aF0.733
aF0.759
aF0.538
aF0.889
aF0.774
aF0.688
aF0.71
aF0.733
aF0.48
aF0.643
aF0.643
aF0.714
aF0.667
aF0.857
aF0.774
aF0.733
aF0.48
aF0.71
aF0.733
aF0.774
aF0.69
aF0.714
aF0.848
aF0.643
aF0.75
aF0.75
aF0.733
aF0.643
aF0.69
aF0.69
aF0.593
aF0.538
aF0.593
aF0.69
aF0.75
aF0.4
aF0.71
aF0.69
aF0.813
aF0.643
aF0.593
aF0.667
aF0.643
aF0.774
aF0.848
aF0.813
aF0.774
aF0.621
aF0.643
aF0.621
aF0.667
aF0.56
aF0.643
aF0.538
aF0.733
aF0.69
aF0.75
aF0.919
aF0.69
aF0.69
aF0.519
aF0.56
aa(lp38
g12
aF0.895
aF0.895
aF0.895
aF0.865
aF0.944
aF0.923
aF0.919
aF0.974
aF0.947
aF0.914
aF0.923
aF1.0
aF0.895
aF0.919
aF0.974
aF0.865
aF0.947
aF0.919
aF0.974
aF0.941
aF0.889
aF0.974
aF0.895
aF0.923
aF0.895
aF0.923
aF0.974
aF0.947
aF0.919
aF0.909
aF0.919
aF0.919
aF0.824
aF0.973
aF0.947
aF0.865
aF0.947
aF1.0
aF0.974
aF0.944
aF0.947
aF0.727
aF0.895
aF0.973
aF0.974
aF0.865
aF0.974
aF0.947
aF0.973
aF0.944
aF0.973
aF0.889
aF0.974
aF0.8
aF0.895
aF0.865
aF0.914
aF0.944
aF0.973
aF0.914
aF0.895
aF0.895
aF0.95
aF0.95
aF0.895
aF0.919
aF1.0
aF0.974
aF0.944
aF0.882
aF0.919
aF0.923
aF0.944
aF0.947
aF0.889
aF0.947
aF0.947
aF0.889
aF0.947
aF0.875
aF0.947
aF0.95
aF0.865
aF0.857
aF0.857
aF0.947
aF0.973
aF0.947
aF0.889
aF0.914
aF0.889
aF0.833
aF0.919
aF0.974
aF0.974
aF0.895
aF0.974
aF0.919
aF0.947
aF0.971
aa(lp39
g14
aF0.833
aF0.944
aF0.857
aF0.857
aF0.75
aF0.774
aF0.75
aF0.774
aF0.824
aF0.848
aF0.765
aF0.882
aF0.824
aF0.727
aF0.788
aF0.865
aF0.882
aF0.733
aF0.69
aF0.848
aF0.848
aF0.947
aF0.857
aF0.788
aF0.774
aF0.857
aF0.848
aF0.848
aF0.75
aF0.813
aF0.857
aF0.788
aF0.914
aF0.643
aF0.865
aF0.75
aF0.774
aF0.667
aF0.857
aF0.882
aF0.824
aF0.788
aF0.914
aF0.833
aF0.889
aF0.69
aF0.857
aF0.733
aF0.857
aF0.848
aF0.813
aF0.833
aF0.882
aF0.889
aF0.824
aF0.621
aF0.882
aF0.75
aF0.69
aF0.759
aF0.857
aF0.788
aF0.865
aF0.733
aF0.75
aF0.788
aF0.919
aF0.788
aF0.848
aF0.733
aF0.882
aF0.824
aF0.848
aF0.519
aF0.788
aF0.889
aF0.824
aF0.71
aF0.813
aF0.875
aF0.788
aF0.75
aF0.75
aF0.865
aF0.71
aF0.643
aF0.889
aF0.788
aF0.889
aF0.774
aF0.774
aF0.824
aF0.833
aF0.833
aF0.667
aF0.813
aF0.69
aF0.882
aF0.889
aF0.839
aa(lp40
g16
aF0.947
aF0.973
aF0.882
aF0.923
aF0.974
aF0.8
aF0.813
aF0.947
aF0.857
aF0.914
aF0.919
aF0.824
aF0.923
aF0.923
aF0.914
aF0.889
aF0.947
aF0.973
aF0.857
aF0.973
aF0.889
aF0.889
aF0.974
aF0.8
aF0.919
aF0.889
aF0.857
aF0.919
aF0.944
aF0.914
aF0.914
aF1.0
aF0.919
aF0.947
aF0.895
aF0.95
aF0.973
aF0.857
aF0.824
aF0.909
aF0.765
aF0.919
aF0.919
aF0.865
aF0.914
aF0.865
aF0.882
aF0.857
aF0.947
aF0.941
aF0.865
aF0.974
aF0.974
aF0.865
aF0.895
aF0.944
aF0.774
aF0.973
aF0.944
aF0.882
aF0.895
aF0.947
aF0.824
aF0.95
aF0.889
aF0.895
aF0.947
aF0.824
aF0.944
aF0.973
aF0.889
aF0.857
aF0.919
aF0.973
aF0.895
aF0.95
aF0.889
aF0.947
aF0.919
aF0.971
aF0.947
aF0.923
aF0.919
aF0.889
aF0.947
aF0.889
aF0.973
aF0.919
aF0.857
aF0.875
aF0.947
aF0.895
aF0.919
aF0.973
aF0.824
aF0.947
aF0.857
aF0.857
aF0.919
aF0.882
aasS'Accuracy'
p41
(lp42
(lp43
g6
aF0.619
aF0.571
aF0.429
aF0.381
aF0.714
aF0.476
aF0.35
aF0.55
aF0.4
aF0.211
aF0.476
aF0.571
aF0.381
aF0.238
aF0.524
aF0.81
aF0.45
aF0.65
aF0.5
aF0.316
aF0.476
aF0.524
aF0.524
aF0.476
aF0.667
aF0.667
aF0.3
aF0.6
aF0.5
aF0.632
aF0.619
aF0.429
aF0.429
aF0.429
aF0.333
aF0.667
aF0.75
aF0.45
aF0.4
aF0.632
aF0.476
aF0.619
aF0.524
aF0.333
aF0.476
aF0.619
aF0.65
aF0.55
aF0.55
aF0.579
aF0.381
aF0.619
aF0.619
aF0.381
aF0.619
aF0.714
aF0.3
aF0.45
aF0.65
aF0.632
aF0.619
aF0.762
aF0.571
aF0.524
aF0.333
aF0.571
aF0.6
aF0.35
aF0.35
aF0.579
aF0.429
aF0.381
aF0.571
aF0.286
aF0.619
aF0.429
aF0.5
aF0.7
aF0.45
aF0.526
aF0.619
aF0.381
aF0.333
aF0.476
aF0.524
aF0.571
aF0.5
aF0.55
aF0.55
aF0.579
aF0.524
aF0.476
aF0.476
aF0.714
aF0.524
aF0.619
aF0.55
aF0.2
aF0.4
aF0.579
aa(lp44
g8
aF0.81
aF0.762
aF0.476
aF0.619
aF0.571
aF0.857
aF0.55
aF0.7
aF0.75
aF0.526
aF0.667
aF0.762
aF0.381
aF0.81
aF0.667
aF0.524
aF0.75
aF0.75
aF0.75
aF0.632
aF0.619
aF0.714
aF0.619
aF0.762
aF0.714
aF0.714
aF0.7
aF0.65
aF0.75
aF0.737
aF0.762
aF0.714
aF0.857
aF0.667
aF0.762
aF0.857
aF0.6
aF0.65
aF0.85
aF0.632
aF0.762
aF0.571
aF0.619
aF0.714
aF0.714
aF0.619
aF0.8
aF0.85
aF0.65
aF0.842
aF0.762
aF0.524
aF0.714
aF0.524
aF0.714
aF0.619
aF0.45
aF0.75
aF0.7
aF0.684
aF0.857
aF0.667
aF0.571
aF0.714
aF0.81
aF0.476
aF0.75
aF0.7
aF0.75
aF0.526
aF0.762
aF0.714
aF0.81
aF0.714
aF0.667
aF0.619
aF0.6
aF0.5
aF0.85
aF0.789
aF0.714
aF0.714
aF0.667
aF0.667
aF0.571
aF0.619
aF0.65
aF0.65
aF0.75
aF0.842
aF0.667
aF0.762
aF0.714
aF0.857
aF0.714
aF0.81
aF0.7
aF0.75
aF0.7
aF0.737
aa(lp45
g10
aF0.429
aF0.381
aF0.524
aF0.619
aF0.667
aF0.619
aF0.65
aF0.7
aF0.45
aF0.421
aF0.524
aF0.762
aF0.571
aF0.524
aF0.667
aF0.667
aF0.65
aF0.4
aF0.4
aF0.632
aF0.476
aF0.714
aF0.476
aF0.524
aF0.667
aF0.571
aF0.5
aF0.55
aF0.45
aF0.684
aF0.524
aF0.667
aF0.381
aF0.571
aF0.524
aF0.571
aF0.6
aF0.45
aF0.6
aF0.632
aF0.429
aF0.81
aF0.667
aF0.524
aF0.571
aF0.619
aF0.35
aF0.5
aF0.5
aF0.579
aF0.524
aF0.762
aF0.667
aF0.619
aF0.381
aF0.571
aF0.6
aF0.65
aF0.55
aF0.579
aF0.762
aF0.524
aF0.619
aF0.619
aF0.619
aF0.524
aF0.55
aF0.55
aF0.45
aF0.368
aF0.476
aF0.571
aF0.619
aF0.286
aF0.571
aF0.571
aF0.7
aF0.5
aF0.45
aF0.526
aF0.524
aF0.667
aF0.762
aF0.714
aF0.667
aF0.476
aF0.5
aF0.45
aF0.5
aF0.421
aF0.524
aF0.429
aF0.619
aF0.571
aF0.619
aF0.857
aF0.55
aF0.55
aF0.35
aF0.421
aa(lp46
g12
aF0.81
aF0.81
aF0.81
aF0.762
aF0.905
aF0.857
aF0.85
aF0.95
aF0.9
aF0.842
aF0.857
aF1.0
aF0.81
aF0.857
aF0.952
aF0.762
aF0.9
aF0.85
aF0.95
aF0.895
aF0.81
aF0.952
aF0.81
aF0.857
aF0.81
aF0.857
aF0.95
aF0.9
aF0.85
aF0.842
aF0.857
aF0.857
aF0.714
aF0.952
aF0.905
aF0.762
aF0.9
aF1.0
aF0.95
aF0.895
aF0.905
aF0.571
aF0.81
aF0.952
aF0.952
aF0.762
aF0.95
aF0.9
aF0.95
aF0.895
aF0.952
aF0.81
aF0.952
aF0.667
aF0.81
aF0.762
aF0.85
aF0.9
aF0.95
aF0.842
aF0.81
aF0.81
aF0.905
aF0.905
aF0.81
aF0.857
aF1.0
aF0.95
aF0.9
aF0.789
aF0.857
aF0.857
aF0.905
aF0.905
aF0.81
aF0.905
aF0.9
aF0.8
aF0.9
aF0.789
aF0.905
aF0.905
aF0.762
aF0.762
aF0.762
aF0.905
aF0.95
aF0.9
aF0.8
aF0.842
aF0.81
aF0.714
aF0.857
aF0.952
aF0.952
aF0.81
aF0.95
aF0.85
aF0.9
aF0.947
aa(lp47
g14
aF0.714
aF0.905
aF0.762
aF0.762
aF0.619
aF0.667
aF0.6
aF0.65
aF0.7
aF0.737
aF0.619
aF0.81
aF0.714
aF0.571
aF0.667
aF0.762
aF0.8
aF0.6
aF0.55
aF0.737
aF0.762
aF0.905
aF0.762
aF0.667
aF0.667
aF0.762
aF0.75
aF0.75
aF0.6
aF0.684
aF0.762
aF0.667
aF0.857
aF0.524
aF0.762
aF0.619
aF0.65
aF0.5
aF0.75
aF0.789
aF0.714
aF0.667
aF0.857
aF0.714
aF0.81
aF0.571
aF0.75
aF0.6
aF0.75
aF0.737
aF0.714
aF0.714
aF0.81
aF0.81
aF0.714
aF0.476
aF0.8
aF0.6
aF0.55
aF0.632
aF0.762
aF0.667
aF0.762
aF0.619
aF0.619
aF0.667
aF0.85
aF0.65
aF0.75
aF0.579
aF0.81
aF0.714
aF0.762
aF0.381
aF0.667
aF0.81
aF0.7
aF0.55
aF0.7
aF0.789
aF0.667
aF0.619
aF0.619
aF0.762
aF0.571
aF0.524
aF0.8
aF0.65
aF0.8
aF0.632
aF0.667
aF0.714
aF0.714
aF0.714
aF0.524
aF0.714
aF0.55
aF0.8
aF0.8
aF0.737
aa(lp48
g16
aF0.905
aF0.952
aF0.81
aF0.857
aF0.952
aF0.667
aF0.7
aF0.9
aF0.75
aF0.842
aF0.857
aF0.714
aF0.857
aF0.857
aF0.857
aF0.81
aF0.9
aF0.95
aF0.75
aF0.947
aF0.81
aF0.81
aF0.952
aF0.667
aF0.857
aF0.81
aF0.75
aF0.85
aF0.9
aF0.842
aF0.857
aF1.0
aF0.857
aF0.905
aF0.81
aF0.905
aF0.95
aF0.75
aF0.7
aF0.842
aF0.619
aF0.857
aF0.857
aF0.762
aF0.857
aF0.762
aF0.8
aF0.75
aF0.9
aF0.895
aF0.762
aF0.952
aF0.952
aF0.762
aF0.81
aF0.905
aF0.65
aF0.95
aF0.9
aF0.789
aF0.81
aF0.905
aF0.714
aF0.905
aF0.81
aF0.81
aF0.9
aF0.7
aF0.9
aF0.947
aF0.81
aF0.762
aF0.857
aF0.952
aF0.81
aF0.905
aF0.8
aF0.9
aF0.85
aF0.947
aF0.905
aF0.857
aF0.857
aF0.81
aF0.905
aF0.81
aF0.95
aF0.85
aF0.75
aF0.789
aF0.905
aF0.81
aF0.857
aF0.952
aF0.714
aF0.905
aF0.75
aF0.75
aF0.85
aF0.789
aass.