(dp0
S'tomcat'
p1
(dp2
S'False_alarm'
p3
(lp4
(lp5
S'KNN'
p6
aF0.152
aF0.218
aF0.0
aF0.256
aF0.256
aF0.128
aF0.244
aF0.192
aF0.269
aF0.192
aF0.241
aF0.192
aF0.218
aF0.231
aF0.218
aF0.244
aF0.231
aF0.179
aF0.192
aF0.218
aF0.354
aF0.205
aF0.205
aF0.256
aF0.308
aF0.141
aF0.295
aF0.218
aF0.205
aF0.231
aF0.241
aF0.141
aF0.244
aF0.179
aF0.231
aF0.218
aF0.269
aF0.231
aF0.244
aF0.231
aF0.228
aF0.205
aF0.231
aF0.179
aF0.154
aF0.218
aF0.205
aF0.269
aF0.205
aF0.308
aF0.253
aF0.244
aF0.205
aF0.09
aF0.205
aF0.244
aF0.231
aF0.154
aF0.295
aF0.179
aF0.19
aF0.231
aF0.256
aF0.154
aF0.282
aF0.256
aF0.256
aF0.179
aF0.231
aF0.192
aF0.241
aF0.179
aF0.205
aF0.244
aF0.308
aF0.244
aF0.167
aF0.256
aF0.128
aF0.218
aF0.278
aF0.179
aF0.282
aF0.205
aF0.205
aF0.154
aF0.179
aF0.244
aF0.141
aF0.282
aF0.19
aF0.269
aF0.218
aF0.231
aF0.256
aF0.218
aF0.205
aF0.167
aF0.205
aF0.205
aa(lp7
S'SVM'
p8
aF0.203
aF0.205
aF0.115
aF0.218
aF0.154
aF0.141
aF0.179
aF0.167
aF0.141
aF0.231
aF0.215
aF0.09
aF0.308
aF0.179
aF0.141
aF0.154
aF0.167
aF0.205
aF0.256
aF0.128
aF0.266
aF0.077
aF0.218
aF0.09
aF0.141
aF0.218
aF0.167
aF0.154
aF0.231
aF0.218
aF0.215
aF0.179
aF0.141
aF0.141
aF0.192
aF0.244
aF0.179
aF0.141
aF0.218
aF0.167
aF0.165
aF0.269
aF0.192
aF0.154
aF0.167
aF0.256
aF0.192
aF0.205
aF0.141
aF0.128
aF0.139
aF0.179
aF0.179
aF0.077
aF0.167
aF0.167
aF0.128
aF0.269
aF0.269
aF0.269
aF0.203
aF0.115
aF0.179
aF0.141
aF0.141
aF0.205
aF0.205
aF0.179
aF0.154
aF0.218
aF0.101
aF0.141
aF0.179
aF0.192
aF0.218
aF0.205
aF0.256
aF0.205
aF0.205
aF0.167
aF0.101
aF0.205
aF0.205
aF0.141
aF0.141
aF0.308
aF0.103
aF0.218
aF0.179
aF0.179
aF0.139
aF0.192
aF0.192
aF0.128
aF0.218
aF0.179
aF0.141
aF0.167
aF0.192
aF0.205
aa(lp9
S'NB'
p10
aF0.127
aF0.103
aF0.115
aF0.128
aF0.064
aF0.115
aF0.205
aF0.128
aF0.128
aF0.154
aF0.139
aF0.115
aF0.103
aF0.205
aF0.115
aF0.09
aF0.115
aF0.141
aF0.179
aF0.09
aF0.127
aF0.115
aF0.154
aF0.103
aF0.128
aF0.141
aF0.167
aF0.09
aF0.128
aF0.179
aF0.127
aF0.141
aF0.077
aF0.128
aF0.09
aF0.103
aF0.115
aF0.103
aF0.167
aF0.141
aF0.177
aF0.141
aF0.115
aF0.064
aF0.128
aF0.115
aF0.192
aF0.141
aF0.077
aF0.141
aF0.177
aF0.064
aF0.051
aF0.167
aF0.154
aF0.077
aF0.077
aF0.154
aF0.192
aF0.09
aF0.076
aF0.115
aF0.09
aF0.103
aF0.09
aF0.09
aF0.154
aF0.128
aF0.141
aF0.128
aF0.152
aF0.09
aF0.167
aF0.128
aF0.077
aF0.09
aF0.282
aF0.128
aF0.064
aF0.141
aF0.127
aF0.128
aF0.179
aF0.128
aF0.154
aF0.115
aF0.038
aF0.128
aF0.103
aF0.077
aF0.19
aF0.051
aF0.218
aF0.154
aF0.09
aF0.154
aF0.154
aF0.167
aF0.026
aF0.115
aa(lp11
S'RF'
p12
aF0.101
aF0.115
aF0.09
aF0.038
aF0.038
aF0.128
aF0.026
aF0.051
aF0.103
aF0.038
aF0.114
aF0.038
aF0.103
aF0.026
aF0.077
aF0.064
aF0.09
aF0.09
aF0.064
aF0.077
aF0.101
aF0.077
aF0.026
aF0.038
aF0.051
aF0.103
aF0.051
aF0.09
aF0.115
aF0.09
aF0.076
aF0.077
aF0.064
aF0.077
aF0.064
aF0.038
aF0.051
aF0.115
aF0.026
aF0.077
aF0.038
aF0.064
aF0.038
aF0.115
aF0.077
aF0.064
aF0.077
aF0.103
aF0.013
aF0.103
aF0.051
aF0.064
aF0.038
aF0.115
aF0.154
aF0.128
aF0.09
aF0.128
aF0.077
aF0.09
aF0.038
aF0.103
aF0.038
aF0.09
aF0.077
aF0.026
aF0.064
aF0.064
aF0.09
aF0.064
aF0.076
aF0.064
aF0.064
aF0.09
aF0.038
aF0.038
aF0.103
aF0.128
aF0.077
aF0.115
aF0.076
aF0.09
aF0.09
aF0.077
aF0.077
aF0.038
aF0.013
aF0.103
aF0.077
aF0.09
aF0.051
aF0.103
aF0.077
aF0.013
aF0.051
aF0.09
aF0.103
aF0.077
aF0.077
aF0.038
aa(lp13
S'LR'
p14
aF0.203
aF0.231
aF0.179
aF0.205
aF0.192
aF0.192
aF0.09
aF0.231
aF0.103
aF0.231
aF0.177
aF0.179
aF0.205
aF0.218
aF0.141
aF0.231
aF0.154
aF0.179
aF0.192
aF0.179
aF0.165
aF0.205
aF0.205
aF0.218
aF0.141
aF0.115
aF0.256
aF0.179
aF0.179
aF0.179
aF0.177
aF0.141
aF0.103
aF0.141
aF0.205
aF0.256
aF0.218
aF0.167
aF0.115
aF0.167
aF0.165
aF0.244
aF0.141
aF0.192
aF0.256
aF0.154
aF0.077
aF0.179
aF0.295
aF0.141
aF0.19
aF0.128
aF0.179
aF0.141
aF0.154
aF0.167
aF0.167
aF0.231
aF0.218
aF0.231
aF0.177
aF0.256
aF0.167
aF0.295
aF0.103
aF0.103
aF0.154
aF0.192
aF0.179
aF0.256
aF0.203
aF0.179
aF0.231
aF0.179
aF0.077
aF0.192
aF0.231
aF0.205
aF0.09
aF0.244
aF0.228
aF0.154
aF0.179
aF0.218
aF0.205
aF0.128
aF0.115
aF0.154
aF0.205
aF0.179
aF0.114
aF0.128
aF0.192
aF0.115
aF0.231
aF0.218
aF0.205
aF0.205
aF0.218
aF0.167
aa(lp15
S'DT'
p16
aF0.165
aF0.051
aF0.0
aF0.077
aF0.09
aF0.103
aF0.051
aF0.141
aF0.179
aF0.115
aF0.203
aF0.128
aF0.077
aF0.064
aF0.115
aF0.09
aF0.141
aF0.077
aF0.103
aF0.128
aF0.089
aF0.154
aF0.103
aF0.103
aF0.115
aF0.141
aF0.077
aF0.077
aF0.077
aF0.115
aF0.114
aF0.103
aF0.154
aF0.154
aF0.128
aF0.103
aF0.077
aF0.141
aF0.09
aF0.077
aF0.114
aF0.115
aF0.09
aF0.115
aF0.128
aF0.103
aF0.141
aF0.218
aF0.128
aF0.103
aF0.139
aF0.103
aF0.128
aF0.064
aF0.115
aF0.115
aF0.103
aF0.115
aF0.103
aF0.115
aF0.139
aF0.077
aF0.09
aF0.167
aF0.103
aF0.09
aF0.077
aF0.077
aF0.115
aF0.141
aF0.114
aF0.077
aF0.077
aF0.128
aF0.077
aF0.103
aF0.141
aF0.077
aF0.167
aF0.09
aF0.152
aF0.179
aF0.115
aF0.051
aF0.077
aF0.128
aF0.115
aF0.128
aF0.064
aF0.09
aF0.114
aF0.128
aF0.103
aF0.064
aF0.167
aF0.128
aF0.179
aF0.115
aF0.103
aF0.103
aasS'Recall'
p17
(lp18
(lp19
g6
aF0.5
aF0.75
aF0.0
aF0.75
aF0.875
aF0.875
aF0.375
aF0.714
aF0.714
aF0.714
aF0.75
aF0.375
aF0.625
aF0.375
aF0.75
aF0.25
aF0.625
aF0.571
aF0.429
aF0.857
aF0.5
aF0.875
aF0.75
aF0.5
aF0.625
aF0.25
aF0.625
aF0.429
aF0.571
aF0.571
aF0.375
aF0.5
aF0.5
aF0.75
aF0.5
aF0.5
aF0.625
aF0.571
aF0.571
aF0.571
aF0.875
aF0.375
aF0.5
aF0.375
aF0.5
aF0.5
aF0.75
aF0.429
aF0.429
aF0.714
aF0.5
aF0.625
aF0.625
aF0.5
aF0.5
aF0.5
aF0.75
aF0.857
aF0.571
aF0.714
aF0.5
aF0.5
aF1.0
aF0.75
aF0.5
aF0.5
aF0.625
aF0.429
aF0.429
aF0.429
aF0.5
aF0.5
aF0.5
aF0.625
aF0.75
aF0.5
aF0.875
aF0.143
aF1.0
aF0.714
aF0.5
aF0.75
aF0.5
aF0.75
aF0.5
aF0.25
aF0.75
aF0.857
aF0.429
aF0.571
aF0.5
aF0.625
aF0.625
aF0.875
aF0.5
aF0.625
aF0.75
aF0.429
aF0.714
aF0.714
aa(lp20
g8
aF0.875
aF0.625
aF0.5
aF0.5
aF0.375
aF0.625
aF0.75
aF0.714
aF0.571
aF1.0
aF0.75
aF0.625
aF0.625
aF0.75
aF0.625
aF0.375
aF1.0
aF0.714
aF0.571
aF0.429
aF0.5
aF0.75
aF0.625
aF0.5
aF0.625
aF0.75
aF0.875
aF0.714
aF0.714
aF0.714
aF0.375
aF0.625
aF0.25
aF0.875
aF0.75
aF0.625
aF0.5
aF0.714
aF0.429
aF1.0
aF0.5
aF0.375
aF0.5
aF0.625
aF0.75
aF0.875
aF0.625
aF1.0
aF0.571
aF0.857
aF0.875
aF0.5
aF0.5
aF0.625
aF0.875
aF0.625
aF0.75
aF0.571
aF0.429
aF0.857
aF0.5
aF0.375
aF0.75
aF0.75
aF0.375
aF0.75
aF0.75
aF0.857
aF0.714
aF0.571
aF0.625
aF0.625
aF0.625
aF0.875
aF0.625
aF0.625
aF0.875
aF0.714
aF0.714
aF0.857
aF0.875
aF0.75
aF0.75
aF0.375
aF1.0
aF0.875
aF0.5
aF0.714
aF0.714
aF0.143
aF0.75
aF0.875
aF0.875
aF0.5
aF0.5
aF0.875
aF0.625
aF0.571
aF0.429
aF0.857
aa(lp21
g10
aF0.625
aF0.625
aF0.375
aF0.375
aF0.875
aF0.625
aF0.5
aF0.571
aF0.571
aF0.286
aF0.5
aF0.625
aF0.5
aF0.75
aF0.625
aF0.25
aF0.25
aF0.571
aF0.429
aF1.0
aF0.75
aF0.75
aF0.625
aF0.25
aF0.625
aF0.75
aF0.5
aF0.571
aF0.429
aF0.571
aF0.75
aF0.625
aF0.5
aF0.375
aF0.375
aF0.5
aF0.625
aF0.571
aF0.714
aF0.857
aF0.75
aF0.875
aF0.375
aF0.5
aF1.0
aF0.5
aF0.375
aF0.429
aF0.714
aF0.429
aF0.5
aF0.5
aF0.375
aF0.5
aF0.5
aF0.625
aF0.625
aF0.714
aF0.714
aF0.714
aF0.5
aF0.875
aF0.5
aF0.75
aF0.5
aF0.375
aF0.625
aF1.0
aF0.286
aF0.429
aF0.75
aF0.5
aF0.625
aF0.5
aF0.625
aF0.75
aF0.625
aF0.429
aF0.571
aF0.714
aF0.5
aF0.375
aF0.875
aF0.5
aF0.625
aF0.625
aF0.625
aF0.571
aF0.429
aF0.857
aF0.375
aF0.625
aF0.625
aF0.5
aF0.5
aF0.625
aF0.75
aF0.714
aF0.429
aF0.429
aa(lp22
g12
aF0.375
aF0.625
aF0.625
aF0.25
aF0.25
aF0.5
aF0.375
aF0.286
aF0.429
aF0.429
aF0.75
aF0.5
aF0.25
aF0.375
aF0.375
aF0.5
aF0.375
aF0.286
aF0.429
aF0.571
aF0.25
aF0.25
aF0.375
aF0.25
aF0.375
aF0.375
aF0.5
aF0.571
aF0.571
aF0.429
aF0.5
aF0.375
aF0.5
aF0.25
aF0.625
aF0.25
aF0.375
aF0.429
aF0.143
aF0.429
aF0.375
aF0.25
aF0.625
aF0.375
aF0.25
aF0.5
aF0.125
aF0.714
aF0.286
aF0.714
aF0.75
aF0.375
aF0.25
aF0.375
aF0.5
aF0.5
aF0.25
aF0.286
aF0.571
aF0.429
aF0.25
aF0.75
aF0.625
aF0.5
aF0.5
aF0.5
aF0.25
aF0.571
aF0.429
aF0.143
aF0.625
aF0.25
aF0.25
aF0.375
aF0.625
aF0.375
aF0.25
aF0.571
aF0.286
aF0.571
aF0.625
aF0.625
aF0.375
aF0.5
aF0.125
aF0.25
aF0.25
aF0.286
aF0.429
aF0.286
aF0.5
aF0.25
aF0.5
aF0.25
aF0.25
aF0.25
aF0.375
aF0.286
aF0.143
aF0.571
aa(lp23
g14
aF0.75
aF0.625
aF0.5
aF0.75
aF0.75
aF0.75
aF0.625
aF0.286
aF0.429
aF1.0
aF0.75
aF0.625
aF0.75
aF0.625
aF0.625
aF0.625
aF0.625
aF0.571
aF0.571
aF0.714
aF0.75
aF0.375
aF0.875
aF0.875
aF0.625
aF0.625
aF0.5
aF0.571
aF0.714
aF0.571
aF0.625
aF0.5
aF0.5
aF0.375
aF0.5
aF0.875
aF0.75
aF0.714
aF0.857
aF0.571
aF0.75
aF0.75
aF0.75
aF0.625
aF0.5
aF0.75
aF1.0
aF0.714
aF0.286
aF0.714
aF0.5
aF0.5
aF0.625
aF0.875
aF0.5
aF0.5
aF0.625
aF0.714
aF0.714
aF0.571
aF0.625
aF0.75
aF0.5
aF0.75
aF0.75
aF0.625
aF0.375
aF0.714
aF0.857
aF0.571
aF0.5
aF0.625
aF0.75
aF0.625
aF0.625
aF0.5
aF0.875
aF0.286
aF0.571
aF0.857
aF0.5
aF0.375
aF0.625
aF1.0
aF0.75
aF0.75
aF0.5
aF0.857
aF0.857
aF0.714
aF0.375
aF0.5
aF0.25
aF0.5
aF1.0
aF0.875
aF0.875
aF0.857
aF0.571
aF0.714
aa(lp24
g16
aF0.25
aF0.625
aF0.0
aF0.5
aF0.5
aF0.375
aF0.375
aF0.429
aF0.286
aF0.429
aF0.375
aF0.375
aF0.375
aF0.375
aF0.625
aF0.25
aF0.625
aF0.286
aF0.286
aF0.714
aF0.375
aF0.375
aF0.625
aF0.125
aF0.5
aF0.5
aF0.375
aF0.286
aF0.143
aF0.143
aF0.25
aF0.375
aF0.25
aF0.625
aF0.375
aF0.25
aF0.5
aF0.286
aF0.571
aF0.286
aF0.25
aF0.5
aF0.375
aF0.375
aF0.625
aF0.25
aF0.25
aF0.571
aF0.286
aF0.429
aF0.25
aF0.5
aF0.375
aF0.25
aF0.375
aF0.25
aF0.25
aF0.429
aF0.429
aF0.571
aF0.75
aF0.375
aF0.5
aF0.25
aF0.375
aF0.25
aF0.375
aF0.429
aF0.286
aF0.143
aF0.375
aF0.25
aF0.25
aF0.375
aF0.125
aF0.5
aF0.375
aF0.714
aF0.429
aF0.143
aF0.5
aF0.25
aF0.875
aF0.5
aF0.375
aF0.25
aF0.375
aF0.571
aF0.143
aF0.286
aF0.5
aF0.125
aF0.5
aF0.375
aF0.5
aF0.625
aF0.5
aF0.429
aF0.143
aF0.143
aasS'Precision'
p25
(lp26
(lp27
g6
aF0.25
aF0.261
aF0.0
aF0.231
aF0.259
aF0.412
aF0.136
aF0.25
aF0.192
aF0.25
aF0.24
aF0.167
aF0.227
aF0.143
aF0.261
aF0.095
aF0.217
aF0.222
aF0.167
aF0.261
aF0.125
aF0.304
aF0.273
aF0.167
aF0.172
aF0.154
aF0.179
aF0.15
aF0.2
aF0.182
aF0.136
aF0.267
aF0.174
aF0.3
aF0.182
aF0.19
aF0.192
aF0.182
aF0.174
aF0.182
aF0.28
aF0.158
aF0.182
aF0.176
aF0.25
aF0.19
aF0.273
aF0.125
aF0.158
aF0.172
aF0.167
aF0.208
aF0.238
aF0.364
aF0.2
aF0.174
aF0.25
aF0.333
aF0.148
aF0.263
aF0.211
aF0.182
aF0.286
aF0.333
aF0.154
aF0.167
aF0.2
aF0.176
aF0.143
aF0.167
aF0.174
aF0.222
aF0.2
aF0.208
aF0.2
aF0.174
aF0.35
aF0.048
aF0.412
aF0.227
aF0.154
aF0.3
aF0.154
aF0.273
aF0.2
aF0.143
aF0.3
aF0.24
aF0.214
aF0.154
aF0.211
aF0.192
aF0.227
aF0.28
aF0.167
aF0.227
aF0.273
aF0.188
aF0.238
aF0.238
aa(lp28
g8
aF0.304
aF0.238
aF0.308
aF0.19
aF0.2
aF0.313
aF0.3
aF0.278
aF0.267
aF0.28
aF0.261
aF0.417
aF0.172
aF0.3
aF0.313
aF0.2
aF0.381
aF0.238
aF0.167
aF0.231
aF0.16
aF0.5
aF0.227
aF0.364
aF0.313
aF0.261
aF0.35
aF0.294
aF0.217
aF0.227
aF0.15
aF0.263
aF0.154
aF0.389
aF0.286
aF0.208
aF0.222
aF0.313
aF0.15
aF0.35
aF0.235
aF0.125
aF0.211
aF0.294
aF0.316
aF0.259
aF0.25
aF0.304
aF0.267
aF0.375
aF0.389
aF0.222
aF0.222
aF0.455
aF0.35
aF0.278
aF0.375
aF0.16
aF0.125
aF0.222
aF0.2
aF0.25
aF0.3
aF0.353
aF0.214
aF0.273
aF0.273
aF0.3
aF0.294
aF0.19
aF0.385
aF0.313
aF0.263
aF0.318
aF0.227
aF0.238
aF0.259
aF0.238
aF0.238
aF0.316
aF0.467
aF0.273
aF0.273
aF0.214
aF0.421
aF0.226
aF0.333
aF0.227
aF0.263
aF0.067
aF0.353
aF0.318
aF0.318
aF0.286
aF0.19
aF0.333
aF0.313
aF0.235
aF0.167
aF0.273
aa(lp29
g10
aF0.333
aF0.385
aF0.25
aF0.231
aF0.583
aF0.357
aF0.2
aF0.286
aF0.286
aF0.143
aF0.267
aF0.357
aF0.333
aF0.273
aF0.357
aF0.222
aF0.182
aF0.267
aF0.176
aF0.5
aF0.375
aF0.4
aF0.294
aF0.2
aF0.333
aF0.353
aF0.235
aF0.364
aF0.231
aF0.222
aF0.375
aF0.313
aF0.4
aF0.231
aF0.3
aF0.333
aF0.357
aF0.333
aF0.278
aF0.353
aF0.3
aF0.389
aF0.25
aF0.444
aF0.444
aF0.308
aF0.167
aF0.214
aF0.455
aF0.214
aF0.222
aF0.444
aF0.429
aF0.235
aF0.25
aF0.455
aF0.455
aF0.294
aF0.25
aF0.417
aF0.4
aF0.438
aF0.364
aF0.429
aF0.364
aF0.3
aF0.294
aF0.412
aF0.154
aF0.231
aF0.333
aF0.364
aF0.278
aF0.286
aF0.455
aF0.462
aF0.185
aF0.231
aF0.444
aF0.313
aF0.286
aF0.231
aF0.333
aF0.286
aF0.294
aF0.357
aF0.625
aF0.286
aF0.273
aF0.5
aF0.167
aF0.556
aF0.227
aF0.25
aF0.364
aF0.294
aF0.333
aF0.278
aF0.6
aF0.25
aa(lp30
g12
aF0.273
aF0.357
aF0.417
aF0.4
aF0.4
aF0.286
aF0.6
aF0.333
aF0.273
aF0.5
aF0.4
aF0.571
aF0.2
aF0.6
aF0.333
aF0.444
aF0.3
aF0.222
aF0.375
aF0.4
aF0.2
aF0.25
aF0.6
aF0.4
aF0.429
aF0.273
aF0.5
aF0.364
aF0.308
aF0.3
aF0.4
aF0.333
aF0.444
aF0.25
aF0.5
aF0.4
aF0.429
aF0.25
aF0.333
aF0.333
aF0.5
aF0.286
aF0.625
aF0.25
aF0.25
aF0.444
aF0.143
aF0.385
aF0.667
aF0.385
aF0.6
aF0.375
aF0.4
aF0.25
aF0.25
aF0.286
aF0.222
aF0.167
aF0.4
aF0.3
aF0.4
aF0.429
aF0.625
aF0.364
aF0.4
aF0.667
aF0.286
aF0.444
aF0.3
aF0.167
aF0.455
aF0.286
aF0.286
aF0.3
aF0.625
aF0.5
aF0.2
aF0.286
aF0.25
aF0.308
aF0.455
aF0.417
aF0.3
aF0.4
aF0.143
aF0.4
aF0.667
aF0.2
aF0.333
aF0.222
aF0.5
aF0.2
aF0.4
aF0.667
aF0.333
aF0.222
aF0.273
aF0.25
aF0.143
aF0.571
aa(lp31
g14
aF0.273
aF0.217
aF0.222
aF0.273
aF0.286
aF0.286
aF0.417
aF0.1
aF0.273
aF0.28
aF0.3
aF0.263
aF0.273
aF0.227
aF0.313
aF0.217
aF0.294
aF0.222
aF0.211
aF0.263
aF0.316
aF0.158
aF0.304
aF0.292
aF0.313
aF0.357
aF0.167
aF0.222
aF0.263
aF0.222
aF0.263
aF0.267
aF0.333
aF0.214
aF0.2
aF0.259
aF0.261
aF0.278
aF0.4
aF0.235
aF0.316
aF0.24
aF0.353
aF0.25
aF0.167
aF0.333
aF0.571
aF0.263
aF0.08
aF0.313
aF0.211
aF0.286
aF0.263
aF0.389
aF0.25
aF0.235
aF0.278
aF0.217
aF0.227
aF0.182
aF0.263
aF0.231
aF0.235
aF0.207
aF0.429
aF0.385
aF0.2
aF0.25
aF0.3
aF0.167
aF0.2
aF0.263
aF0.25
aF0.263
aF0.455
aF0.211
aF0.28
aF0.111
aF0.364
aF0.24
aF0.182
aF0.2
aF0.263
aF0.32
aF0.273
aF0.375
aF0.308
aF0.333
aF0.273
aF0.263
aF0.25
aF0.286
aF0.118
aF0.308
aF0.308
aF0.292
aF0.304
aF0.273
aF0.19
aF0.278
aa(lp32
g16
aF0.133
aF0.556
aF0.0
aF0.4
aF0.364
aF0.273
aF0.429
aF0.214
aF0.125
aF0.25
aF0.158
aF0.231
aF0.333
aF0.375
aF0.357
aF0.222
aF0.313
aF0.25
aF0.2
aF0.333
aF0.3
aF0.2
aF0.385
aF0.111
aF0.308
aF0.267
aF0.333
aF0.25
aF0.143
aF0.1
aF0.182
aF0.273
aF0.143
aF0.294
aF0.231
aF0.2
aF0.4
aF0.154
aF0.364
aF0.25
aF0.182
aF0.308
aF0.3
aF0.25
aF0.333
aF0.2
aF0.154
aF0.19
aF0.167
aF0.273
aF0.154
aF0.333
aF0.231
aF0.286
aF0.25
aF0.182
aF0.2
aF0.25
aF0.273
aF0.308
aF0.353
aF0.333
aF0.364
aF0.133
aF0.273
aF0.222
aF0.333
aF0.333
aF0.182
aF0.083
aF0.25
aF0.25
aF0.25
aF0.231
aF0.143
aF0.333
aF0.214
aF0.455
aF0.188
aF0.125
aF0.25
aF0.125
aF0.438
aF0.5
aF0.333
aF0.167
aF0.25
aF0.286
aF0.167
aF0.222
aF0.308
aF0.091
aF0.333
aF0.375
aF0.235
aF0.333
aF0.222
aF0.25
aF0.111
aF0.111
aasS'F_score'
p33
(lp34
(lp35
g6
aF0.333
aF0.387
aF0.0
aF0.353
aF0.4
aF0.56
aF0.2
aF0.37
aF0.303
aF0.37
aF0.364
aF0.231
aF0.333
aF0.207
aF0.387
aF0.138
aF0.323
aF0.32
aF0.24
aF0.4
aF0.2
aF0.452
aF0.4
aF0.25
aF0.27
aF0.19
aF0.278
aF0.222
aF0.296
aF0.276
aF0.2
aF0.348
aF0.258
aF0.429
aF0.267
aF0.276
aF0.294
aF0.276
aF0.267
aF0.276
aF0.424
aF0.222
aF0.267
aF0.24
aF0.333
aF0.276
aF0.4
aF0.194
aF0.231
aF0.278
aF0.25
aF0.313
aF0.345
aF0.421
aF0.286
aF0.258
aF0.375
aF0.48
aF0.235
aF0.385
aF0.296
aF0.267
aF0.444
aF0.462
aF0.235
aF0.25
aF0.303
aF0.25
aF0.214
aF0.24
aF0.258
aF0.308
aF0.286
aF0.313
aF0.316
aF0.258
aF0.5
aF0.071
aF0.583
aF0.345
aF0.235
aF0.429
aF0.235
aF0.4
aF0.286
aF0.182
aF0.429
aF0.375
aF0.286
aF0.242
aF0.296
aF0.294
aF0.333
aF0.424
aF0.25
aF0.333
aF0.4
aF0.261
aF0.357
aF0.357
aa(lp36
g8
aF0.452
aF0.345
aF0.381
aF0.276
aF0.261
aF0.417
aF0.429
aF0.4
aF0.364
aF0.438
aF0.387
aF0.5
aF0.27
aF0.429
aF0.417
aF0.261
aF0.552
aF0.357
aF0.258
aF0.3
aF0.242
aF0.6
aF0.333
aF0.421
aF0.417
aF0.387
aF0.5
aF0.417
aF0.333
aF0.345
aF0.214
aF0.37
aF0.19
aF0.538
aF0.414
aF0.313
aF0.308
aF0.435
aF0.222
aF0.519
aF0.32
aF0.188
aF0.296
aF0.4
aF0.444
aF0.4
aF0.357
aF0.467
aF0.364
aF0.522
aF0.538
aF0.308
aF0.308
aF0.526
aF0.5
aF0.385
aF0.5
aF0.25
aF0.194
aF0.353
aF0.286
aF0.3
aF0.429
aF0.48
aF0.273
aF0.4
aF0.4
aF0.444
aF0.417
aF0.286
aF0.476
aF0.417
aF0.37
aF0.467
aF0.333
aF0.345
aF0.4
aF0.357
aF0.357
aF0.462
aF0.609
aF0.4
aF0.4
aF0.273
aF0.593
aF0.359
aF0.4
aF0.345
aF0.385
aF0.091
aF0.48
aF0.467
aF0.467
aF0.364
aF0.276
aF0.483
aF0.417
aF0.333
aF0.24
aF0.414
aa(lp37
g10
aF0.435
aF0.476
aF0.3
aF0.286
aF0.7
aF0.455
aF0.286
aF0.381
aF0.381
aF0.19
aF0.348
aF0.455
aF0.4
aF0.4
aF0.455
aF0.235
aF0.211
aF0.364
aF0.25
aF0.667
aF0.5
aF0.522
aF0.4
aF0.222
aF0.435
aF0.48
aF0.32
aF0.444
aF0.3
aF0.32
aF0.5
aF0.417
aF0.444
aF0.286
aF0.333
aF0.4
aF0.455
aF0.421
aF0.4
aF0.5
aF0.429
aF0.538
aF0.3
aF0.471
aF0.615
aF0.381
aF0.231
aF0.286
aF0.556
aF0.286
aF0.308
aF0.471
aF0.4
aF0.32
aF0.333
aF0.526
aF0.526
aF0.417
aF0.37
aF0.526
aF0.444
aF0.583
aF0.421
aF0.545
aF0.421
aF0.333
aF0.4
aF0.583
aF0.2
aF0.3
aF0.462
aF0.421
aF0.385
aF0.364
aF0.526
aF0.571
aF0.286
aF0.3
aF0.5
aF0.435
aF0.364
aF0.286
aF0.483
aF0.364
aF0.4
aF0.455
aF0.625
aF0.381
aF0.333
aF0.632
aF0.231
aF0.588
aF0.333
aF0.333
aF0.421
aF0.4
aF0.462
aF0.4
aF0.5
aF0.316
aa(lp38
g12
aF0.316
aF0.455
aF0.5
aF0.308
aF0.308
aF0.364
aF0.462
aF0.308
aF0.333
aF0.462
aF0.522
aF0.533
aF0.222
aF0.462
aF0.353
aF0.471
aF0.333
aF0.25
aF0.4
aF0.471
aF0.222
aF0.25
aF0.462
aF0.308
aF0.4
aF0.316
aF0.5
aF0.444
aF0.4
aF0.353
aF0.444
aF0.353
aF0.471
aF0.25
aF0.556
aF0.308
aF0.4
aF0.316
aF0.2
aF0.375
aF0.429
aF0.267
aF0.625
aF0.3
aF0.25
aF0.471
aF0.133
aF0.5
aF0.4
aF0.5
aF0.667
aF0.375
aF0.308
aF0.3
aF0.333
aF0.364
aF0.235
aF0.211
aF0.471
aF0.353
aF0.308
aF0.545
aF0.625
aF0.421
aF0.444
aF0.571
aF0.267
aF0.5
aF0.353
aF0.154
aF0.526
aF0.267
aF0.267
aF0.333
aF0.625
aF0.429
aF0.222
aF0.381
aF0.267
aF0.4
aF0.526
aF0.5
aF0.333
aF0.444
aF0.133
aF0.308
aF0.364
aF0.235
aF0.375
aF0.25
aF0.5
aF0.222
aF0.444
aF0.364
aF0.286
aF0.235
aF0.316
aF0.267
aF0.143
aF0.571
aa(lp39
g14
aF0.4
aF0.323
aF0.308
aF0.4
aF0.414
aF0.414
aF0.5
aF0.148
aF0.333
aF0.438
aF0.429
aF0.37
aF0.4
aF0.333
aF0.417
aF0.323
aF0.4
aF0.32
aF0.308
aF0.385
aF0.444
aF0.222
aF0.452
aF0.438
aF0.417
aF0.455
aF0.25
aF0.32
aF0.385
aF0.32
aF0.37
aF0.348
aF0.4
aF0.273
aF0.286
aF0.4
aF0.387
aF0.4
aF0.545
aF0.333
aF0.444
aF0.364
aF0.48
aF0.357
aF0.25
aF0.462
aF0.727
aF0.385
aF0.125
aF0.435
aF0.296
aF0.364
aF0.37
aF0.538
aF0.333
aF0.32
aF0.385
aF0.333
aF0.345
aF0.276
aF0.37
aF0.353
aF0.32
aF0.324
aF0.545
aF0.476
aF0.261
aF0.37
aF0.444
aF0.258
aF0.286
aF0.37
aF0.375
aF0.37
aF0.526
aF0.296
aF0.424
aF0.16
aF0.444
aF0.375
aF0.267
aF0.261
aF0.37
aF0.485
aF0.4
aF0.5
aF0.381
aF0.48
aF0.414
aF0.385
aF0.3
aF0.364
aF0.16
aF0.381
aF0.471
aF0.438
aF0.452
aF0.414
aF0.286
aF0.4
aa(lp40
g16
aF0.174
aF0.588
aF0.0
aF0.444
aF0.421
aF0.316
aF0.4
aF0.286
aF0.174
aF0.316
aF0.222
aF0.286
aF0.353
aF0.375
aF0.455
aF0.235
aF0.417
aF0.267
aF0.235
aF0.455
aF0.333
aF0.261
aF0.476
aF0.118
aF0.381
aF0.348
aF0.353
aF0.267
aF0.143
aF0.118
aF0.211
aF0.316
aF0.182
aF0.4
aF0.286
aF0.222
aF0.444
aF0.2
aF0.444
aF0.267
aF0.211
aF0.381
aF0.333
aF0.3
aF0.435
aF0.222
aF0.19
aF0.286
aF0.211
aF0.333
aF0.19
aF0.4
aF0.286
aF0.267
aF0.3
aF0.211
aF0.222
aF0.316
aF0.333
aF0.4
aF0.48
aF0.353
aF0.421
aF0.174
aF0.316
aF0.235
aF0.353
aF0.375
aF0.222
aF0.105
aF0.3
aF0.25
aF0.25
aF0.286
aF0.133
aF0.4
aF0.273
aF0.556
aF0.261
aF0.133
aF0.333
aF0.167
aF0.583
aF0.5
aF0.353
aF0.2
aF0.3
aF0.381
aF0.154
aF0.25
aF0.381
aF0.105
aF0.4
aF0.375
aF0.32
aF0.435
aF0.308
aF0.316
aF0.125
aF0.125
aasS'Accuracy'
p41
(lp42
(lp43
g6
aF0.816
aF0.779
aF0.0
aF0.744
aF0.756
aF0.872
aF0.721
aF0.8
aF0.729
aF0.8
aF0.759
aF0.767
aF0.767
aF0.733
aF0.779
aF0.709
aF0.756
aF0.8
aF0.776
aF0.788
aF0.632
aF0.802
aF0.791
aF0.721
aF0.686
aF0.802
aF0.698
aF0.753
aF0.776
aF0.753
aF0.724
aF0.826
aF0.733
aF0.814
aF0.744
aF0.756
aF0.721
aF0.753
aF0.741
aF0.753
aF0.782
aF0.756
aF0.744
aF0.779
aF0.814
aF0.756
aF0.791
aF0.706
aF0.765
aF0.694
aF0.724
aF0.744
aF0.779
aF0.872
aF0.767
aF0.733
aF0.767
aF0.847
aF0.694
aF0.812
aF0.782
aF0.744
aF0.767
aF0.837
aF0.698
aF0.721
aF0.733
aF0.788
aF0.741
aF0.776
aF0.736
aF0.791
aF0.767
aF0.744
aF0.698
aF0.733
aF0.837
aF0.694
aF0.882
aF0.776
aF0.701
aF0.814
aF0.698
aF0.791
aF0.767
aF0.791
aF0.814
aF0.765
aF0.824
aF0.706
aF0.782
aF0.721
aF0.767
aF0.779
aF0.721
aF0.767
aF0.791
aF0.8
aF0.788
aF0.788
aa(lp44
g8
aF0.805
aF0.779
aF0.849
aF0.756
aF0.802
aF0.837
aF0.814
aF0.824
aF0.835
aF0.788
aF0.782
aF0.884
aF0.686
aF0.814
aF0.837
aF0.802
aF0.849
aF0.788
aF0.729
aF0.835
aF0.713
aF0.907
aF0.767
aF0.872
aF0.837
aF0.779
aF0.837
aF0.835
aF0.765
aF0.776
aF0.747
aF0.802
aF0.802
aF0.86
aF0.802
aF0.744
aF0.791
aF0.847
aF0.753
aF0.847
aF0.805
aF0.698
aF0.779
aF0.826
aF0.826
aF0.756
aF0.791
aF0.812
aF0.835
aF0.871
aF0.862
aF0.791
aF0.791
aF0.895
aF0.837
aF0.814
aF0.86
aF0.718
aF0.706
aF0.741
aF0.77
aF0.837
aF0.814
aF0.849
aF0.814
aF0.791
aF0.791
aF0.824
aF0.835
aF0.765
aF0.874
aF0.837
aF0.802
aF0.814
aF0.767
aF0.779
aF0.756
aF0.788
aF0.788
aF0.835
aF0.897
aF0.791
aF0.791
aF0.814
aF0.872
aF0.709
aF0.86
aF0.776
aF0.812
aF0.765
aF0.851
aF0.814
aF0.814
aF0.837
aF0.756
aF0.826
aF0.837
aF0.812
aF0.776
aF0.8
aa(lp45
g10
aF0.851
aF0.872
aF0.837
aF0.826
aF0.93
aF0.86
aF0.767
aF0.847
aF0.847
aF0.8
aF0.828
aF0.86
aF0.86
aF0.791
aF0.86
aF0.849
aF0.826
aF0.835
aF0.788
aF0.918
aF0.862
aF0.872
aF0.826
aF0.837
aF0.849
aF0.849
aF0.802
aF0.882
aF0.835
aF0.8
aF0.862
aF0.837
aF0.884
aF0.826
aF0.86
aF0.86
aF0.86
aF0.871
aF0.824
aF0.859
aF0.816
aF0.86
aF0.837
aF0.895
aF0.884
aF0.849
aF0.767
aF0.824
aF0.906
aF0.824
aF0.793
aF0.895
aF0.895
aF0.802
aF0.814
aF0.895
aF0.895
aF0.835
aF0.8
aF0.894
aF0.885
aF0.884
aF0.872
aF0.884
aF0.872
aF0.86
aF0.826
aF0.882
aF0.812
aF0.835
aF0.839
aF0.872
aF0.814
aF0.837
aF0.895
aF0.895
aF0.709
aF0.835
aF0.906
aF0.847
aF0.839
aF0.826
aF0.826
aF0.837
aF0.826
aF0.86
aF0.93
aF0.847
aF0.859
aF0.918
aF0.77
aF0.919
aF0.767
aF0.814
aF0.872
aF0.826
aF0.837
aF0.824
aF0.929
aF0.847
aa(lp46
g12
aF0.851
aF0.86
aF0.884
aF0.895
aF0.895
aF0.837
aF0.919
aF0.894
aF0.859
aF0.918
aF0.874
aF0.919
aF0.837
aF0.919
aF0.872
aF0.895
aF0.86
aF0.859
aF0.894
aF0.894
aF0.839
aF0.86
aF0.919
aF0.895
aF0.895
aF0.849
aF0.907
aF0.882
aF0.859
aF0.871
aF0.885
aF0.872
aF0.895
aF0.86
aF0.907
aF0.895
aF0.895
aF0.847
aF0.906
aF0.882
aF0.908
aF0.872
aF0.93
aF0.837
aF0.86
aF0.895
aF0.849
aF0.882
aF0.929
aF0.882
aF0.931
aF0.884
aF0.895
aF0.837
aF0.814
aF0.837
aF0.849
aF0.824
aF0.894
aF0.871
aF0.897
aF0.884
aF0.93
aF0.872
aF0.884
aF0.93
aF0.872
aF0.906
aF0.871
aF0.871
aF0.897
aF0.872
aF0.872
aF0.86
aF0.93
aF0.907
aF0.837
aF0.847
aF0.871
aF0.859
aF0.897
aF0.884
aF0.86
aF0.884
aF0.849
aF0.895
aF0.919
aF0.847
aF0.882
aF0.859
aF0.908
aF0.837
aF0.884
aF0.919
aF0.884
aF0.849
aF0.849
aF0.871
aF0.859
aF0.929
aa(lp47
g14
aF0.793
aF0.756
aF0.791
aF0.791
aF0.802
aF0.802
aF0.884
aF0.729
aF0.859
aF0.788
aF0.816
aF0.802
aF0.791
aF0.767
aF0.837
aF0.756
aF0.826
aF0.8
aF0.788
aF0.812
aF0.828
aF0.756
aF0.802
aF0.791
aF0.837
aF0.86
aF0.721
aF0.8
aF0.812
aF0.8
aF0.805
aF0.826
aF0.86
aF0.814
aF0.767
aF0.756
aF0.779
aF0.824
aF0.882
aF0.812
aF0.828
aF0.756
aF0.849
aF0.791
aF0.721
aF0.837
aF0.93
aF0.812
aF0.671
aF0.847
aF0.782
aF0.837
aF0.802
aF0.86
aF0.814
aF0.802
aF0.814
aF0.765
aF0.776
aF0.753
aF0.805
aF0.744
aF0.802
aF0.709
aF0.884
aF0.872
aF0.802
aF0.8
aF0.824
aF0.729
aF0.77
aF0.802
aF0.767
aF0.802
aF0.895
aF0.779
aF0.779
aF0.753
aF0.882
aF0.765
aF0.747
aF0.802
aF0.802
aF0.802
aF0.791
aF0.86
aF0.849
aF0.847
aF0.8
aF0.812
aF0.839
aF0.837
aF0.756
aF0.849
aF0.791
aF0.791
aF0.802
aF0.8
aF0.765
aF0.824
aa(lp48
g16
aF0.782
aF0.919
aF0.0
aF0.884
aF0.872
aF0.849
aF0.895
aF0.824
aF0.776
aF0.847
aF0.759
aF0.826
aF0.872
aF0.884
aF0.86
aF0.849
aF0.837
aF0.871
aF0.847
aF0.859
aF0.862
aF0.802
aF0.872
aF0.826
aF0.849
aF0.826
aF0.872
aF0.871
aF0.859
aF0.824
aF0.828
aF0.849
aF0.791
aF0.826
aF0.826
aF0.837
aF0.884
aF0.812
aF0.882
aF0.871
aF0.828
aF0.849
aF0.86
aF0.837
aF0.849
aF0.837
aF0.802
aF0.765
aF0.824
aF0.859
aF0.805
aF0.86
aF0.826
aF0.872
aF0.837
aF0.826
aF0.837
aF0.847
aF0.859
aF0.859
aF0.851
aF0.872
aF0.872
aF0.779
aF0.849
aF0.849
aF0.872
aF0.882
aF0.835
aF0.8
aF0.839
aF0.86
aF0.86
aF0.826
aF0.849
aF0.86
aF0.814
aF0.906
aF0.8
aF0.847
aF0.816
aF0.767
aF0.884
aF0.907
aF0.872
aF0.814
aF0.837
aF0.847
aF0.871
aF0.859
aF0.851
aF0.802
aF0.86
aF0.884
aF0.802
aF0.849
aF0.791
aF0.847
aF0.835
aF0.835
aass.