(dp0
S'xerces'
p1
(dp2
S'False_alarm'
p3
(lp4
(lp5
S'KNN'
p6
aF0.313
aF0.133
aF0.067
aF0.267
aF0.4
aF0.133
aF0.267
aF0.333
aF0.267
aF0.333
aF0.188
aF0.267
aF0.133
aF0.2
aF0.267
aF0.267
aF0.267
aF0.2
aF0.267
aF0.267
aF0.438
aF0.133
aF0.267
aF0.067
aF0.067
aF0.133
aF0.333
aF0.2
aF0.267
aF0.2
aF0.313
aF0.333
aF0.133
aF0.333
aF0.2
aF0.2
aF0.2
aF0.2
aF0.2
aF0.333
aF0.313
aF0.2
aF0.267
aF0.133
aF0.133
aF0.4
aF0.133
aF0.4
aF0.267
aF0.2
aF0.438
aF0.267
aF0.2
aF0.133
aF0.467
aF0.067
aF0.2
aF0.267
aF0.2
aF0.133
aF0.375
aF0.333
aF0.133
aF0.267
aF0.2
aF0.2
aF0.2
aF0.2
aF0.333
aF0.267
aF0.313
aF0.267
aF0.267
aF0.4
aF0.0
aF0.133
aF0.067
aF0.067
aF0.267
aF0.4
aF0.313
aF0.2
aF0.2
aF0.067
aF0.267
aF0.267
aF0.333
aF0.2
aF0.133
aF0.333
aF0.25
aF0.2
aF0.333
aF0.2
aF0.2
aF0.4
aF0.267
aF0.133
aF0.267
aF0.333
aa(lp7
S'SVM'
p8
aF0.313
aF0.133
aF0.067
aF0.133
aF0.067
aF0.2
aF0.133
aF0.067
aF0.0
aF0.2
aF0.125
aF0.067
aF0.133
aF0.2
aF0.333
aF0.133
aF0.2
aF0.133
aF0.067
aF0.133
aF0.188
aF0.2
aF0.0
aF0.133
aF0.067
aF0.333
aF0.2
aF0.133
aF0.133
aF0.133
aF0.063
aF0.2
aF0.2
aF0.0
aF0.2
aF0.0
aF0.067
aF0.267
aF0.133
aF0.133
aF0.063
aF0.2
aF0.2
aF0.2
aF0.067
aF0.067
aF0.067
aF0.2
aF0.2
aF0.067
aF0.125
aF0.067
aF0.067
aF0.133
aF0.067
aF0.2
aF0.2
aF0.133
aF0.2
aF0.133
aF0.188
aF0.267
aF0.333
aF0.133
aF0.0
aF0.133
aF0.067
aF0.0
aF0.133
aF0.2
aF0.188
aF0.133
aF0.133
aF0.133
aF0.0
aF0.067
aF0.133
aF0.067
aF0.133
aF0.2
aF0.063
aF0.0
aF0.0
aF0.133
aF0.067
aF0.267
aF0.267
aF0.2
aF0.133
aF0.2
aF0.063
aF0.2
aF0.333
aF0.133
aF0.133
aF0.0
aF0.133
aF0.067
aF0.2
aF0.133
aa(lp9
S'NB'
p10
aF0.063
aF0.2
aF0.133
aF0.133
aF0.067
aF0.133
aF0.067
aF0.067
aF0.133
aF0.2
aF0.125
aF0.2
aF0.0
aF0.067
aF0.133
aF0.0
aF0.133
aF0.267
aF0.067
aF0.133
aF0.063
aF0.2
aF0.133
aF0.267
aF0.067
aF0.133
aF0.2
aF0.0
aF0.067
aF0.133
aF0.188
aF0.2
aF0.0
aF0.133
aF0.067
aF0.133
aF0.267
aF0.067
aF0.133
aF0.067
aF0.125
aF0.133
aF0.133
aF0.2
aF0.133
aF0.0
aF0.2
aF0.2
aF0.067
aF0.267
aF0.063
aF0.067
aF0.267
aF0.067
aF0.267
aF0.133
aF0.133
aF0.267
aF0.067
aF0.133
aF0.125
aF0.2
aF0.133
aF0.0
aF0.2
aF0.133
aF0.2
aF0.133
aF0.133
aF0.2
aF0.063
aF0.2
aF0.2
aF0.0
aF0.067
aF0.267
aF0.067
aF0.267
aF0.333
aF0.2
aF0.188
aF0.133
aF0.2
aF0.133
aF0.067
aF0.133
aF0.067
aF0.133
aF0.133
aF0.067
aF0.063
aF0.067
aF0.267
aF0.067
aF0.2
aF0.2
aF0.067
aF0.133
aF0.2
aF0.067
aa(lp11
S'RF'
p12
aF0.375
aF0.2
aF0.333
aF0.133
aF0.2
aF0.2
aF0.267
aF0.067
aF0.0
aF0.2
aF0.125
aF0.267
aF0.2
aF0.267
aF0.133
aF0.067
aF0.333
aF0.067
aF0.2
aF0.133
aF0.188
aF0.133
aF0.2
aF0.133
aF0.133
aF0.333
aF0.2
aF0.2
aF0.133
aF0.133
aF0.188
aF0.133
aF0.2
aF0.133
aF0.267
aF0.267
aF0.2
aF0.133
aF0.133
aF0.133
aF0.125
aF0.333
aF0.133
aF0.133
aF0.133
aF0.267
aF0.267
aF0.067
aF0.267
aF0.2
aF0.25
aF0.0
aF0.2
aF0.2
aF0.067
aF0.133
aF0.533
aF0.067
aF0.067
aF0.333
aF0.25
aF0.133
aF0.133
aF0.2
aF0.2
aF0.267
aF0.133
aF0.2
aF0.067
aF0.2
aF0.188
aF0.067
aF0.133
aF0.133
aF0.4
aF0.2
aF0.133
aF0.2
aF0.267
aF0.067
aF0.188
aF0.067
aF0.133
aF0.2
aF0.2
aF0.2
aF0.133
aF0.0
aF0.267
aF0.4
aF0.188
aF0.067
aF0.133
aF0.133
aF0.267
aF0.133
aF0.2
aF0.2
aF0.133
aF0.2
aa(lp13
S'LR'
p14
aF0.313
aF0.0
aF0.133
aF0.067
aF0.0
aF0.267
aF0.2
aF0.0
aF0.2
aF0.067
aF0.063
aF0.2
aF0.2
aF0.133
aF0.333
aF0.133
aF0.133
aF0.067
aF0.0
aF0.067
aF0.188
aF0.0
aF0.267
aF0.2
aF0.133
aF0.2
aF0.067
aF0.2
aF0.133
aF0.0
aF0.125
aF0.267
aF0.2
aF0.133
aF0.0
aF0.0
aF0.133
aF0.133
aF0.267
aF0.067
aF0.375
aF0.267
aF0.133
aF0.133
aF0.067
aF0.133
aF0.0
aF0.267
aF0.0
aF0.133
aF0.063
aF0.133
aF0.133
aF0.267
aF0.133
aF0.067
aF0.067
aF0.267
aF0.2
aF0.0
aF0.063
aF0.2
aF0.133
aF0.0
aF0.133
aF0.133
aF0.0
aF0.133
aF0.2
aF0.2
aF0.188
aF0.133
aF0.267
aF0.0
aF0.133
aF0.133
aF0.067
aF0.0
aF0.267
aF0.133
aF0.063
aF0.0
aF0.133
aF0.067
aF0.2
aF0.2
aF0.067
aF0.267
aF0.133
aF0.067
aF0.063
aF0.133
aF0.0
aF0.4
aF0.067
aF0.2
aF0.133
aF0.2
aF0.2
aF0.067
aa(lp15
S'DT'
p16
aF0.313
aF0.133
aF0.133
aF0.267
aF0.133
aF0.133
aF0.133
aF0.133
aF0.4
aF0.333
aF0.188
aF0.267
aF0.067
aF0.333
aF0.333
aF0.067
aF0.2
aF0.267
aF0.333
aF0.0
aF0.375
aF0.133
aF0.067
aF0.267
aF0.2
aF0.133
aF0.067
aF0.267
aF0.2
aF0.333
aF0.188
aF0.2
aF0.267
aF0.2
aF0.133
aF0.133
aF0.267
aF0.267
aF0.133
aF0.2
aF0.0
aF0.4
aF0.2
aF0.267
aF0.133
aF0.067
aF0.133
aF0.467
aF0.2
aF0.267
aF0.125
aF0.267
aF0.2
aF0.267
aF0.2
aF0.133
aF0.267
aF0.2
aF0.267
aF0.267
aF0.25
aF0.2
aF0.133
aF0.2
aF0.267
aF0.2
aF0.2
aF0.2
aF0.267
aF0.2
aF0.125
aF0.067
aF0.267
aF0.333
aF0.133
aF0.267
aF0.0
aF0.267
aF0.4
aF0.333
aF0.125
aF0.2
aF0.333
aF0.333
aF0.267
aF0.267
aF0.133
aF0.133
aF0.333
aF0.2
aF0.25
aF0.0
aF0.2
aF0.267
aF0.133
aF0.333
aF0.067
aF0.133
aF0.2
aF0.267
aasS'Recall'
p17
(lp18
(lp19
g6
aF0.795
aF0.818
aF0.705
aF0.659
aF0.841
aF0.727
aF0.886
aF0.744
aF0.674
aF0.698
aF0.75
aF0.864
aF0.545
aF0.795
aF0.864
aF0.795
aF0.773
aF0.721
aF0.86
aF0.884
aF0.818
aF0.773
aF0.75
aF0.818
aF0.795
aF0.818
aF0.886
aF0.86
aF0.744
aF0.767
aF0.886
aF0.841
aF0.795
aF0.773
aF0.818
aF0.841
aF0.659
aF0.721
aF0.767
aF0.791
aF0.864
aF0.705
aF0.795
aF0.773
aF0.773
aF0.818
aF0.909
aF0.791
aF0.86
aF0.767
aF0.773
aF0.773
aF0.818
aF0.795
aF0.75
aF0.614
aF0.841
aF0.884
aF0.791
aF0.86
aF0.795
aF0.75
aF0.773
aF0.773
aF0.75
aF0.682
aF0.841
aF0.767
aF0.814
aF0.837
aF0.705
aF0.841
aF0.773
aF0.773
aF0.727
aF0.727
aF0.841
aF0.744
aF0.767
aF0.791
aF0.773
aF0.727
aF0.818
aF0.886
aF0.727
aF0.705
aF0.682
aF0.814
aF0.698
aF0.907
aF0.795
aF0.818
aF0.75
aF0.705
aF0.614
aF0.795
aF0.795
aF0.814
aF0.744
aF0.86
aa(lp20
g8
aF0.773
aF0.909
aF0.75
aF0.864
aF0.909
aF0.841
aF0.909
aF0.721
aF0.953
aF0.884
aF0.886
aF0.818
aF0.886
aF0.886
aF0.841
aF0.841
aF0.864
aF0.837
aF0.907
aF0.814
aF0.795
aF0.864
aF0.818
aF0.705
aF0.909
aF0.909
aF0.864
aF0.86
aF0.814
aF0.953
aF0.909
aF0.841
aF0.909
aF0.886
aF0.841
aF0.773
aF0.727
aF0.953
aF0.93
aF0.791
aF0.795
aF0.886
aF0.727
aF0.886
aF0.886
aF0.886
aF0.841
aF0.907
aF0.907
aF0.791
aF0.75
aF0.795
aF0.909
aF0.818
aF0.705
aF0.977
aF0.818
aF0.907
aF0.86
aF0.953
aF0.955
aF0.864
aF0.886
aF0.932
aF0.909
aF0.818
aF0.932
aF0.814
aF0.837
aF0.907
aF0.909
aF0.886
aF0.841
aF0.864
aF0.773
aF0.636
aF0.909
aF0.837
aF0.953
aF0.86
aF0.795
aF0.682
aF0.886
aF0.909
aF0.841
aF0.864
aF0.977
aF0.884
aF0.837
aF0.767
aF0.818
aF0.932
aF0.773
aF0.886
aF0.841
aF0.841
aF0.818
aF0.884
aF0.814
aF0.744
aa(lp21
g10
aF0.5
aF0.705
aF0.568
aF0.705
aF0.705
aF0.727
aF0.5
aF0.605
aF0.581
aF0.535
aF0.591
aF0.523
aF0.591
aF0.636
aF0.614
aF0.5
aF0.682
aF0.698
aF0.558
aF0.744
aF0.659
aF0.727
aF0.545
aF0.409
aF0.773
aF0.682
aF0.636
aF0.581
aF0.535
aF0.651
aF0.727
aF0.614
aF0.568
aF0.432
aF0.591
aF0.636
aF0.659
aF0.605
aF0.721
aF0.465
aF0.5
aF0.636
aF0.636
aF0.659
aF0.75
aF0.455
aF0.636
aF0.605
aF0.698
aF0.581
aF0.523
aF0.5
aF0.727
aF0.682
aF0.636
aF0.568
aF0.545
aF0.698
aF0.605
aF0.698
aF0.614
aF0.591
aF0.636
aF0.545
aF0.682
aF0.523
aF0.5
aF0.767
aF0.605
aF0.744
aF0.591
aF0.477
aF0.682
aF0.591
aF0.568
aF0.75
aF0.523
aF0.651
aF0.628
aF0.721
aF0.75
aF0.614
aF0.568
aF0.432
aF0.5
aF0.727
aF0.523
aF0.674
aF0.581
aF0.651
aF0.75
aF0.545
aF0.636
aF0.545
aF0.636
aF0.614
aF0.705
aF0.628
aF0.605
aF0.512
aa(lp22
g12
aF0.864
aF0.932
aF0.955
aF0.955
aF0.955
aF0.932
aF0.909
aF0.953
aF0.953
aF0.93
aF0.977
aF0.955
aF0.955
aF0.955
aF0.977
aF0.886
aF0.977
aF0.837
aF1.0
aF0.907
aF0.932
aF0.977
aF0.977
aF0.977
aF0.955
aF0.977
aF0.955
aF0.953
aF0.907
aF0.953
aF0.886
aF0.977
aF0.955
aF0.886
aF0.886
aF0.955
aF0.977
aF0.907
aF0.93
aF0.93
aF0.909
aF0.932
aF0.977
aF0.841
aF0.955
aF0.955
aF0.955
aF0.93
aF0.953
aF0.884
aF0.932
aF0.932
aF0.886
aF0.932
aF0.932
aF0.955
aF0.977
aF0.977
aF1.0
aF0.93
aF0.977
aF0.909
aF0.886
aF1.0
aF0.932
aF0.955
aF0.955
aF0.93
aF0.977
aF0.907
aF0.932
aF0.886
aF0.955
aF0.932
aF0.955
aF0.955
aF0.955
aF0.907
aF0.953
aF0.953
aF0.886
aF0.864
aF0.955
aF0.955
aF0.955
aF0.955
aF0.977
aF0.884
aF0.977
aF0.977
aF0.955
aF0.886
aF0.909
aF0.932
aF0.955
aF0.977
aF0.955
aF0.953
aF0.953
aF0.907
aa(lp23
g14
aF0.795
aF0.75
aF0.75
aF0.818
aF0.864
aF0.841
aF0.886
aF0.837
aF0.767
aF0.698
aF0.75
aF0.841
aF0.727
aF0.75
aF0.841
aF0.818
aF0.795
aF0.814
aF0.86
aF0.837
aF0.864
aF0.682
aF0.773
aF0.841
aF0.909
aF0.886
aF0.795
aF0.814
aF0.814
aF0.744
aF0.886
aF0.682
aF0.841
aF0.75
aF0.75
aF0.864
aF0.841
aF0.791
aF0.814
aF0.837
aF0.886
aF0.795
aF0.818
aF0.75
aF0.864
aF0.773
aF0.727
aF0.907
aF0.86
aF0.698
aF0.705
aF0.864
aF0.818
aF0.864
aF0.864
aF0.795
aF0.659
aF0.907
aF0.837
aF0.767
aF0.773
aF0.818
aF0.682
aF0.909
aF0.818
aF0.75
aF0.795
aF0.837
aF0.93
aF0.744
aF0.886
aF0.886
aF0.75
aF0.773
aF0.864
aF0.795
aF0.773
aF0.698
aF0.744
aF0.767
aF0.773
aF0.841
aF0.727
aF0.682
aF0.841
aF0.864
aF0.773
aF0.767
aF0.814
aF0.698
aF0.705
aF0.818
aF0.818
aF0.773
aF0.886
aF0.705
aF0.795
aF0.721
aF0.837
aF0.767
aa(lp24
g16
aF0.955
aF0.932
aF0.977
aF0.977
aF0.955
aF0.955
aF0.955
aF0.884
aF0.977
aF1.0
aF0.932
aF0.955
aF1.0
aF0.909
aF0.818
aF0.932
aF0.977
aF0.977
aF0.93
aF0.86
aF0.932
aF0.955
aF0.932
aF0.886
aF1.0
aF1.0
aF0.841
aF0.93
aF0.953
aF0.977
aF0.977
aF0.977
aF0.909
aF0.977
aF0.886
aF0.909
aF0.886
aF1.0
aF0.907
aF0.977
aF0.955
aF0.955
aF0.932
aF0.955
aF0.886
aF0.932
aF0.909
aF1.0
aF0.907
aF1.0
aF0.955
aF0.955
aF0.955
aF0.909
aF1.0
aF0.841
aF0.955
aF0.837
aF1.0
aF0.953
aF0.932
aF0.909
aF0.932
aF0.909
aF0.955
aF0.909
aF0.932
aF0.93
aF0.93
aF0.93
aF0.955
aF0.886
aF0.909
aF0.932
aF0.909
aF0.909
aF0.841
aF0.93
aF0.977
aF0.953
aF0.932
aF0.932
aF0.955
aF0.977
aF0.955
aF1.0
aF0.864
aF0.93
aF0.953
aF0.977
aF0.909
aF0.955
aF0.955
aF0.977
aF0.932
aF0.955
aF0.955
aF0.977
aF0.907
aF0.977
aasS'Precision'
p25
(lp26
(lp27
g6
aF0.875
aF0.947
aF0.969
aF0.879
aF0.86
aF0.941
aF0.907
aF0.865
aF0.879
aF0.857
aF0.917
aF0.905
aF0.923
aF0.921
aF0.905
aF0.897
aF0.895
aF0.912
aF0.902
aF0.905
aF0.837
aF0.944
aF0.892
aF0.973
aF0.972
aF0.947
aF0.886
aF0.925
aF0.889
aF0.917
aF0.886
aF0.881
aF0.946
aF0.872
aF0.923
aF0.925
aF0.906
aF0.912
aF0.917
aF0.872
aF0.884
aF0.912
aF0.897
aF0.944
aF0.944
aF0.857
aF0.952
aF0.85
aF0.902
aF0.917
aF0.829
aF0.895
aF0.923
aF0.946
aF0.825
aF0.964
aF0.925
aF0.905
aF0.919
aF0.949
aF0.854
aF0.868
aF0.944
aF0.895
aF0.917
aF0.909
aF0.925
aF0.917
aF0.875
aF0.9
aF0.861
aF0.902
aF0.895
aF0.85
aF1.0
aF0.941
aF0.974
aF0.97
aF0.892
aF0.85
aF0.872
aF0.914
aF0.923
aF0.975
aF0.889
aF0.886
aF0.857
aF0.921
aF0.938
aF0.886
aF0.897
aF0.923
aF0.868
aF0.912
aF0.9
aF0.854
aF0.897
aF0.946
aF0.889
aF0.881
aa(lp28
g8
aF0.872
aF0.952
aF0.971
aF0.95
aF0.976
aF0.925
aF0.952
aF0.969
aF1.0
aF0.927
aF0.951
aF0.973
aF0.951
aF0.929
aF0.881
aF0.949
aF0.927
aF0.947
aF0.975
aF0.946
aF0.921
aF0.927
aF1.0
aF0.939
aF0.976
aF0.889
aF0.927
aF0.949
aF0.946
aF0.953
aF0.976
aF0.925
aF0.93
aF1.0
aF0.925
aF1.0
aF0.97
aF0.911
aF0.952
aF0.944
aF0.972
aF0.929
aF0.914
aF0.929
aF0.975
aF0.975
aF0.974
aF0.929
aF0.929
aF0.971
aF0.943
aF0.972
aF0.976
aF0.947
aF0.969
aF0.935
aF0.923
aF0.951
aF0.925
aF0.953
aF0.933
aF0.905
aF0.886
aF0.953
aF1.0
aF0.947
aF0.976
aF1.0
aF0.947
aF0.929
aF0.93
aF0.951
aF0.949
aF0.95
aF1.0
aF0.966
aF0.952
aF0.973
aF0.953
aF0.925
aF0.972
aF1.0
aF1.0
aF0.952
aF0.974
aF0.905
aF0.915
aF0.927
aF0.947
aF0.917
aF0.973
aF0.932
aF0.872
aF0.951
aF0.949
aF1.0
aF0.947
aF0.974
aF0.921
aF0.941
aa(lp29
g10
aF0.957
aF0.912
aF0.926
aF0.939
aF0.969
aF0.941
aF0.957
aF0.963
aF0.926
aF0.885
aF0.929
aF0.885
aF1.0
aF0.966
aF0.931
aF1.0
aF0.938
aF0.882
aF0.96
aF0.941
aF0.967
aF0.914
aF0.923
aF0.818
aF0.971
aF0.938
aF0.903
aF1.0
aF0.958
aF0.933
aF0.914
aF0.9
aF1.0
aF0.905
aF0.963
aF0.933
aF0.879
aF0.963
aF0.939
aF0.952
aF0.917
aF0.933
aF0.933
aF0.906
aF0.943
aF1.0
aF0.903
aF0.897
aF0.968
aF0.862
aF0.958
aF0.957
aF0.889
aF0.968
aF0.875
aF0.926
aF0.923
aF0.882
aF0.963
aF0.938
aF0.931
aF0.897
aF0.933
aF1.0
aF0.909
aF0.92
aF0.88
aF0.943
aF0.929
aF0.914
aF0.963
aF0.875
aF0.909
aF1.0
aF0.962
aF0.892
aF0.958
aF0.875
aF0.844
aF0.912
aF0.917
aF0.931
aF0.893
aF0.905
aF0.957
aF0.941
aF0.958
aF0.935
aF0.926
aF0.966
aF0.971
aF0.96
aF0.875
aF0.96
aF0.903
aF0.9
aF0.969
aF0.931
aF0.897
aF0.957
aa(lp30
g12
aF0.864
aF0.932
aF0.894
aF0.955
aF0.933
aF0.932
aF0.909
aF0.976
aF1.0
aF0.93
aF0.956
aF0.913
aF0.933
aF0.913
aF0.956
aF0.975
aF0.896
aF0.973
aF0.935
aF0.951
aF0.932
aF0.956
aF0.935
aF0.956
aF0.955
aF0.896
aF0.933
aF0.932
aF0.951
aF0.953
aF0.929
aF0.956
aF0.933
aF0.951
aF0.907
aF0.913
aF0.935
aF0.951
aF0.952
aF0.952
aF0.952
aF0.891
aF0.956
aF0.949
aF0.955
aF0.913
aF0.913
aF0.976
aF0.911
aF0.927
aF0.911
aF1.0
aF0.929
aF0.932
aF0.976
aF0.955
aF0.843
aF0.977
aF0.977
aF0.889
aF0.915
aF0.952
aF0.951
aF0.936
aF0.932
aF0.913
aF0.955
aF0.93
aF0.977
aF0.929
aF0.932
aF0.975
aF0.955
aF0.953
aF0.875
aF0.933
aF0.955
aF0.929
aF0.911
aF0.976
aF0.929
aF0.974
aF0.955
aF0.933
aF0.933
aF0.933
aF0.956
aF1.0
aF0.913
aF0.875
aF0.933
aF0.975
aF0.952
aF0.953
aF0.913
aF0.956
aF0.933
aF0.932
aF0.953
aF0.929
aa(lp31
g14
aF0.875
aF1.0
aF0.943
aF0.973
aF1.0
aF0.902
aF0.929
aF1.0
aF0.917
aF0.968
aF0.971
aF0.925
aF0.914
aF0.943
aF0.881
aF0.947
aF0.946
aF0.972
aF1.0
aF0.973
aF0.927
aF1.0
aF0.895
aF0.925
aF0.952
aF0.929
aF0.972
aF0.921
aF0.946
aF1.0
aF0.951
aF0.882
aF0.925
aF0.943
aF1.0
aF1.0
aF0.949
aF0.944
aF0.897
aF0.973
aF0.867
aF0.897
aF0.947
aF0.943
aF0.974
aF0.944
aF1.0
aF0.907
aF1.0
aF0.938
aF0.969
aF0.95
aF0.947
aF0.905
aF0.95
aF0.972
aF0.967
aF0.907
aF0.923
aF1.0
aF0.971
aF0.923
aF0.938
aF1.0
aF0.947
aF0.943
aF1.0
aF0.947
aF0.93
aF0.914
aF0.929
aF0.951
aF0.892
aF1.0
aF0.95
aF0.946
aF0.971
aF1.0
aF0.889
aF0.943
aF0.971
aF1.0
aF0.941
aF0.968
aF0.925
aF0.927
aF0.971
aF0.892
aF0.946
aF0.968
aF0.969
aF0.947
aF1.0
aF0.85
aF0.975
aF0.912
aF0.946
aF0.912
aF0.923
aF0.971
aa(lp32
g16
aF0.894
aF0.953
aF0.956
aF0.915
aF0.955
aF0.955
aF0.955
aF0.95
aF0.875
aF0.896
aF0.932
aF0.913
aF0.978
aF0.889
aF0.878
aF0.976
aF0.935
aF0.913
aF0.889
aF1.0
aF0.872
aF0.955
aF0.976
aF0.907
aF0.936
aF0.957
aF0.974
aF0.909
aF0.932
aF0.894
aF0.935
aF0.935
aF0.909
aF0.935
aF0.951
aF0.952
aF0.907
aF0.915
aF0.951
aF0.933
aF1.0
aF0.875
aF0.932
aF0.913
aF0.951
aF0.976
aF0.952
aF0.86
aF0.929
aF0.915
aF0.955
aF0.913
aF0.933
aF0.909
aF0.936
aF0.949
aF0.913
aF0.923
aF0.915
aF0.911
aF0.911
aF0.93
aF0.953
aF0.93
aF0.913
aF0.93
aF0.932
aF0.93
aF0.909
aF0.93
aF0.955
aF0.975
aF0.909
aF0.891
aF0.952
aF0.909
aF1.0
aF0.909
aF0.875
aF0.891
aF0.953
aF0.932
aF0.894
aF0.896
aF0.913
aF0.917
aF0.95
aF0.952
aF0.891
aF0.933
aF0.909
aF1.0
aF0.933
aF0.915
aF0.953
aF0.894
aF0.977
aF0.955
aF0.929
aF0.913
aasS'F_score'
p33
(lp34
(lp35
g6
aF0.833
aF0.878
aF0.816
aF0.753
aF0.851
aF0.821
aF0.897
aF0.8
aF0.763
aF0.769
aF0.825
aF0.884
aF0.686
aF0.854
aF0.884
aF0.843
aF0.829
aF0.805
aF0.881
aF0.894
aF0.828
aF0.85
aF0.815
aF0.889
aF0.875
aF0.878
aF0.886
aF0.892
aF0.81
aF0.835
aF0.886
aF0.86
aF0.864
aF0.819
aF0.867
aF0.881
aF0.763
aF0.805
aF0.835
aF0.829
aF0.874
aF0.795
aF0.843
aF0.85
aF0.85
aF0.837
aF0.93
aF0.819
aF0.881
aF0.835
aF0.8
aF0.829
aF0.867
aF0.864
aF0.786
aF0.75
aF0.881
aF0.894
aF0.85
aF0.902
aF0.824
aF0.805
aF0.85
aF0.829
aF0.825
aF0.779
aF0.881
aF0.835
aF0.843
aF0.867
aF0.775
aF0.871
aF0.829
aF0.81
aF0.842
aF0.821
aF0.902
aF0.842
aF0.825
aF0.819
aF0.819
aF0.81
aF0.867
aF0.929
aF0.8
aF0.785
aF0.759
aF0.864
aF0.8
aF0.897
aF0.843
aF0.867
aF0.805
aF0.795
aF0.73
aF0.824
aF0.843
aF0.875
aF0.81
aF0.871
aa(lp36
g8
aF0.819
aF0.93
aF0.846
aF0.905
aF0.941
aF0.881
aF0.93
aF0.827
aF0.976
aF0.905
aF0.918
aF0.889
aF0.918
aF0.907
aF0.86
aF0.892
aF0.894
aF0.889
aF0.94
aF0.875
aF0.854
aF0.894
aF0.9
aF0.805
aF0.941
aF0.899
aF0.894
aF0.902
aF0.875
aF0.953
aF0.941
aF0.881
aF0.92
aF0.94
aF0.881
aF0.872
aF0.831
aF0.932
aF0.941
aF0.861
aF0.875
aF0.907
aF0.81
aF0.907
aF0.929
aF0.929
aF0.902
aF0.918
aF0.918
aF0.872
aF0.835
aF0.875
aF0.941
aF0.878
aF0.816
aF0.956
aF0.867
aF0.929
aF0.892
aF0.953
aF0.944
aF0.884
aF0.886
aF0.943
aF0.952
aF0.878
aF0.953
aF0.897
aF0.889
aF0.918
aF0.92
aF0.918
aF0.892
aF0.905
aF0.872
aF0.767
aF0.93
aF0.9
aF0.953
aF0.892
aF0.875
aF0.811
aF0.94
aF0.93
aF0.902
aF0.884
aF0.945
aF0.905
aF0.889
aF0.835
aF0.889
aF0.932
aF0.819
aF0.918
aF0.892
aF0.914
aF0.878
aF0.927
aF0.864
aF0.831
aa(lp37
g10
aF0.657
aF0.795
aF0.704
aF0.805
aF0.816
aF0.821
aF0.657
aF0.743
aF0.714
aF0.667
aF0.722
aF0.657
aF0.743
aF0.767
aF0.74
aF0.667
aF0.789
aF0.779
aF0.706
aF0.831
aF0.784
aF0.81
aF0.686
aF0.545
aF0.861
aF0.789
aF0.747
aF0.735
aF0.687
aF0.767
aF0.81
aF0.73
aF0.725
aF0.585
aF0.732
aF0.757
aF0.753
aF0.743
aF0.816
aF0.625
aF0.647
aF0.757
aF0.757
aF0.763
aF0.835
aF0.625
aF0.747
aF0.722
aF0.811
aF0.694
aF0.676
aF0.657
aF0.8
aF0.8
aF0.737
aF0.704
aF0.686
aF0.779
aF0.743
aF0.8
aF0.74
aF0.712
aF0.757
aF0.706
aF0.779
aF0.667
aF0.638
aF0.846
aF0.732
aF0.821
aF0.732
aF0.618
aF0.779
aF0.743
aF0.714
aF0.815
aF0.676
aF0.747
aF0.72
aF0.805
aF0.825
aF0.74
aF0.694
aF0.585
aF0.657
aF0.821
aF0.676
aF0.784
aF0.714
aF0.778
aF0.846
aF0.696
aF0.737
aF0.696
aF0.747
aF0.73
aF0.816
aF0.75
aF0.722
aF0.667
aa(lp38
g12
aF0.864
aF0.932
aF0.923
aF0.955
aF0.944
aF0.932
aF0.909
aF0.965
aF0.976
aF0.93
aF0.966
aF0.933
aF0.944
aF0.933
aF0.966
aF0.929
aF0.935
aF0.9
aF0.966
aF0.929
aF0.932
aF0.966
aF0.956
aF0.966
aF0.955
aF0.935
aF0.944
aF0.943
aF0.929
aF0.953
aF0.907
aF0.966
aF0.944
aF0.918
aF0.897
aF0.933
aF0.956
aF0.929
aF0.941
aF0.941
aF0.93
aF0.911
aF0.966
aF0.892
aF0.955
aF0.933
aF0.933
aF0.952
aF0.932
aF0.905
aF0.921
aF0.965
aF0.907
aF0.932
aF0.953
aF0.955
aF0.905
aF0.977
aF0.989
aF0.909
aF0.945
aF0.93
aF0.918
aF0.967
aF0.932
aF0.933
aF0.955
aF0.93
aF0.977
aF0.918
aF0.932
aF0.929
aF0.955
aF0.943
aF0.913
aF0.944
aF0.955
aF0.918
aF0.932
aF0.965
aF0.907
aF0.916
aF0.955
aF0.944
aF0.944
aF0.944
aF0.966
aF0.938
aF0.944
aF0.923
aF0.944
aF0.929
aF0.93
aF0.943
aF0.933
aF0.966
aF0.944
aF0.943
aF0.953
aF0.918
aa(lp39
g14
aF0.833
aF0.857
aF0.835
aF0.889
aF0.927
aF0.871
aF0.907
aF0.911
aF0.835
aF0.811
aF0.846
aF0.881
aF0.81
aF0.835
aF0.86
aF0.878
aF0.864
aF0.886
aF0.925
aF0.9
aF0.894
aF0.811
aF0.829
aF0.881
aF0.93
aF0.907
aF0.875
aF0.864
aF0.875
aF0.853
aF0.918
aF0.769
aF0.881
aF0.835
aF0.857
aF0.927
aF0.892
aF0.861
aF0.854
aF0.9
aF0.876
aF0.843
aF0.878
aF0.835
aF0.916
aF0.85
aF0.842
aF0.907
aF0.925
aF0.8
aF0.816
aF0.905
aF0.878
aF0.884
aF0.905
aF0.875
aF0.784
aF0.907
aF0.878
aF0.868
aF0.861
aF0.867
aF0.789
aF0.952
aF0.878
aF0.835
aF0.886
aF0.889
aF0.93
aF0.821
aF0.907
aF0.918
aF0.815
aF0.872
aF0.905
aF0.864
aF0.861
aF0.822
aF0.81
aF0.846
aF0.861
aF0.914
aF0.821
aF0.8
aF0.881
aF0.894
aF0.861
aF0.825
aF0.875
aF0.811
aF0.816
aF0.878
aF0.9
aF0.81
aF0.929
aF0.795
aF0.864
aF0.805
aF0.878
aF0.857
aa(lp40
g16
aF0.923
aF0.943
aF0.966
aF0.945
aF0.955
aF0.955
aF0.955
aF0.916
aF0.923
aF0.945
aF0.932
aF0.933
aF0.989
aF0.899
aF0.847
aF0.953
aF0.956
aF0.944
aF0.909
aF0.925
aF0.901
aF0.955
aF0.953
aF0.897
aF0.967
aF0.978
aF0.902
aF0.92
aF0.943
aF0.933
aF0.956
aF0.956
aF0.909
aF0.956
aF0.918
aF0.93
aF0.897
aF0.956
aF0.929
aF0.955
aF0.977
aF0.913
aF0.932
aF0.933
aF0.918
aF0.953
aF0.93
aF0.925
aF0.918
aF0.956
aF0.955
aF0.933
aF0.944
aF0.909
aF0.967
aF0.892
aF0.933
aF0.878
aF0.956
aF0.932
aF0.921
aF0.92
aF0.943
aF0.92
aF0.933
aF0.92
aF0.932
aF0.93
aF0.92
aF0.93
aF0.955
aF0.929
aF0.909
aF0.911
aF0.93
aF0.909
aF0.914
aF0.92
aF0.923
aF0.921
aF0.943
aF0.932
aF0.923
aF0.935
aF0.933
aF0.957
aF0.905
aF0.941
aF0.921
aF0.955
aF0.909
aF0.977
aF0.944
aF0.945
aF0.943
aF0.923
aF0.966
aF0.966
aF0.918
aF0.944
aasS'Accuracy'
p41
(lp42
(lp43
g6
aF0.767
aF0.831
aF0.763
aF0.678
aF0.78
aF0.763
aF0.847
aF0.724
aF0.69
aF0.69
aF0.767
aF0.831
aF0.627
aF0.797
aF0.831
aF0.78
aF0.763
aF0.741
aF0.828
aF0.845
aF0.75
aF0.797
aF0.746
aF0.847
aF0.831
aF0.831
aF0.831
aF0.845
aF0.741
aF0.776
aF0.833
aF0.797
aF0.814
aF0.746
aF0.814
aF0.831
aF0.695
aF0.741
aF0.776
aF0.759
aF0.817
aF0.729
aF0.78
aF0.797
aF0.797
aF0.763
aF0.898
aF0.741
aF0.828
aF0.776
aF0.717
aF0.763
aF0.814
aF0.814
aF0.695
aF0.695
aF0.831
aF0.845
aF0.793
aF0.862
aF0.75
aF0.729
aF0.797
aF0.763
aF0.763
aF0.712
aF0.831
aF0.776
aF0.776
aF0.81
aF0.7
aF0.814
aF0.763
aF0.729
aF0.797
aF0.763
aF0.864
aF0.793
aF0.759
aF0.741
aF0.75
aF0.746
aF0.814
aF0.898
aF0.729
aF0.712
aF0.678
aF0.81
aF0.741
aF0.845
aF0.783
aF0.814
aF0.729
aF0.729
aF0.661
aF0.746
aF0.78
aF0.828
aF0.741
aF0.81
aa(lp44
g8
aF0.75
aF0.898
aF0.797
aF0.864
aF0.915
aF0.831
aF0.898
aF0.776
aF0.966
aF0.862
aF0.883
aF0.847
aF0.881
aF0.864
aF0.797
aF0.847
aF0.847
aF0.845
aF0.914
aF0.828
aF0.8
aF0.847
aF0.864
aF0.746
aF0.915
aF0.847
aF0.847
aF0.862
aF0.828
aF0.931
aF0.917
aF0.831
aF0.881
aF0.915
aF0.831
aF0.831
aF0.78
aF0.897
aF0.914
aF0.81
aF0.833
aF0.864
aF0.746
aF0.864
aF0.898
aF0.898
aF0.864
aF0.879
aF0.879
aF0.828
aF0.783
aF0.831
aF0.915
aF0.831
aF0.763
aF0.932
aF0.814
aF0.897
aF0.845
aF0.931
aF0.917
aF0.831
aF0.831
aF0.915
aF0.932
aF0.831
aF0.932
aF0.862
aF0.845
aF0.879
aF0.883
aF0.881
aF0.847
aF0.864
aF0.831
aF0.712
aF0.898
aF0.862
aF0.931
aF0.845
aF0.833
aF0.763
aF0.915
aF0.898
aF0.864
aF0.831
aF0.915
aF0.862
aF0.845
aF0.776
aF0.85
aF0.898
aF0.746
aF0.881
aF0.847
aF0.881
aF0.831
aF0.897
aF0.81
aF0.776
aa(lp45
g10
aF0.617
aF0.729
aF0.644
aF0.746
aF0.763
aF0.763
aF0.61
aF0.69
aF0.655
aF0.603
aF0.667
aF0.593
aF0.695
aF0.712
aF0.678
aF0.627
aF0.729
aF0.707
aF0.655
aF0.776
aF0.733
aF0.746
aF0.627
aF0.492
aF0.814
aF0.729
aF0.678
aF0.69
aF0.638
aF0.707
aF0.75
aF0.661
aF0.678
aF0.542
aF0.678
aF0.695
aF0.678
aF0.69
aF0.759
aF0.586
aF0.6
aF0.695
aF0.695
aF0.695
aF0.78
aF0.593
aF0.678
aF0.655
aF0.759
aF0.621
aF0.633
aF0.61
aF0.729
aF0.746
aF0.661
aF0.644
aF0.627
aF0.707
aF0.69
aF0.741
aF0.683
aF0.644
aF0.695
aF0.661
aF0.712
aF0.61
aF0.576
aF0.793
aF0.672
aF0.759
aF0.683
aF0.559
aF0.712
aF0.695
aF0.661
aF0.746
aF0.627
aF0.672
aF0.638
aF0.741
aF0.767
aF0.678
aF0.627
aF0.542
aF0.61
aF0.763
aF0.627
aF0.724
aF0.655
aF0.724
aF0.8
aF0.644
aF0.661
aF0.644
aF0.678
aF0.661
aF0.763
aF0.69
aF0.655
aF0.621
aa(lp46
g12
aF0.8
aF0.898
aF0.881
aF0.932
aF0.915
aF0.898
aF0.864
aF0.948
aF0.966
aF0.897
aF0.95
aF0.898
aF0.915
aF0.898
aF0.949
aF0.898
aF0.898
aF0.862
aF0.948
aF0.897
aF0.9
aF0.949
aF0.932
aF0.949
aF0.932
aF0.898
aF0.915
aF0.914
aF0.897
aF0.931
aF0.867
aF0.949
aF0.915
aF0.881
aF0.847
aF0.898
aF0.932
aF0.897
aF0.914
aF0.914
aF0.9
aF0.864
aF0.949
aF0.847
aF0.932
aF0.898
aF0.898
aF0.931
aF0.897
aF0.862
aF0.883
aF0.949
aF0.864
aF0.898
aF0.932
aF0.932
aF0.847
aF0.966
aF0.983
aF0.862
aF0.917
aF0.898
aF0.881
aF0.949
aF0.898
aF0.898
aF0.932
aF0.897
aF0.966
aF0.879
aF0.9
aF0.898
aF0.932
aF0.915
aF0.864
aF0.915
aF0.932
aF0.879
aF0.897
aF0.948
aF0.867
aF0.881
aF0.932
aF0.915
aF0.915
aF0.915
aF0.949
aF0.914
aF0.914
aF0.879
aF0.917
aF0.898
aF0.898
aF0.915
aF0.898
aF0.949
aF0.915
aF0.914
aF0.931
aF0.879
aa(lp47
g14
aF0.767
aF0.814
aF0.78
aF0.847
aF0.898
aF0.814
aF0.864
aF0.879
aF0.776
aF0.759
aF0.8
aF0.831
aF0.746
aF0.78
aF0.797
aF0.831
aF0.814
aF0.845
aF0.897
aF0.862
aF0.85
aF0.763
aF0.763
aF0.831
aF0.898
aF0.864
aF0.831
aF0.81
aF0.828
aF0.81
aF0.883
aF0.695
aF0.831
aF0.78
aF0.814
aF0.898
aF0.847
aF0.81
aF0.793
aF0.862
aF0.817
aF0.78
aF0.831
aF0.78
aF0.881
aF0.797
aF0.797
aF0.862
aF0.897
aF0.741
aF0.767
aF0.864
aF0.831
aF0.831
aF0.864
aF0.831
aF0.729
aF0.862
aF0.828
aF0.828
aF0.817
aF0.814
aF0.729
aF0.932
aF0.831
aF0.78
aF0.847
aF0.845
aF0.897
aF0.759
aF0.867
aF0.881
aF0.746
aF0.831
aF0.864
aF0.814
aF0.814
aF0.776
aF0.741
aF0.793
aF0.817
aF0.881
aF0.763
aF0.746
aF0.831
aF0.847
aF0.814
aF0.759
aF0.828
aF0.759
aF0.767
aF0.831
aF0.864
aF0.729
aF0.898
aF0.729
aF0.814
aF0.741
aF0.828
aF0.81
aa(lp48
g16
aF0.883
aF0.915
aF0.949
aF0.915
aF0.932
aF0.932
aF0.932
aF0.879
aF0.879
aF0.914
aF0.9
aF0.898
aF0.983
aF0.847
aF0.78
aF0.932
aF0.932
aF0.914
aF0.862
aF0.897
aF0.85
aF0.932
aF0.932
aF0.847
aF0.949
aF0.966
aF0.864
aF0.879
aF0.914
aF0.897
aF0.933
aF0.932
aF0.864
aF0.932
aF0.881
aF0.898
aF0.847
aF0.931
aF0.897
aF0.931
aF0.967
aF0.864
aF0.898
aF0.898
aF0.881
aF0.932
aF0.898
aF0.879
aF0.879
aF0.931
aF0.933
aF0.898
aF0.915
aF0.864
aF0.949
aF0.847
aF0.898
aF0.828
aF0.931
aF0.897
aF0.883
aF0.881
aF0.915
aF0.881
aF0.898
aF0.881
aF0.898
aF0.897
aF0.879
aF0.897
aF0.933
aF0.898
aF0.864
aF0.864
aF0.898
aF0.864
aF0.881
aF0.879
aF0.879
aF0.879
aF0.917
aF0.898
aF0.881
aF0.898
aF0.898
aF0.932
aF0.864
aF0.914
aF0.879
aF0.931
aF0.867
aF0.966
aF0.915
aF0.915
aF0.915
aF0.881
aF0.949
aF0.948
aF0.879
aF0.914
aass.