(dp0
S'synapse'
p1
(dp2
S'AUC'
p3
(lp4
(lp5
S'KNN'
p6
aF0.088
aF0.176
aF0.088
aF0.176
aF0.235
aF0.088
aF0.088
aF0.294
aF0.118
aF0.118
aF0.118
aF0.147
aF0.206
aF0.147
aF0.176
aa(lp7
S'SVM'
p8
aF0.029
aF0.088
aF0.088
aF0.176
aF0.147
aF0.029
aF0.118
aF0.118
aF0.118
aF0.176
aF0.059
aF0.088
aF0.059
aF0.206
aF0.059
aa(lp9
S'NB'
p10
aF0.118
aF0.118
aF0.118
aF0.147
aF0.324
aF0.147
aF0.147
aF0.118
aF0.176
aF0.206
aF0.235
aF0.118
aF0.176
aF0.088
aF0.176
aa(lp11
S'RF'
p12
aF0.118
aF0.147
aF0.118
aF0.118
aF0.059
aF0.265
aF0.059
aF0.147
aF0.118
aF0.118
aF0.176
aF0.088
aF0.059
aF0.206
aF0.059
aa(lp13
S'LR'
p14
aF0.118
aF0.176
aF0.147
aF0.118
aF0.118
aF0.029
aF0.118
aF0.118
aF0.176
aF0.088
aF0.059
aF0.147
aF0.118
aF0.118
aF0.118
aa(lp15
S'DT'
p16
aF0.324
aF0.147
aF0.176
aF0.176
aF0.206
aF0.235
aF0.147
aF0.353
aF0.206
aF0.235
aF0.324
aF0.118
aF0.059
aF0.294
aF0.324
aasS'False_alarm'
p17
(lp18
(lp19
g6
aF0.088
aF0.176
aF0.088
aF0.176
aF0.235
aF0.088
aF0.088
aF0.294
aF0.118
aF0.118
aF0.118
aF0.147
aF0.206
aF0.147
aF0.176
aa(lp20
g8
aF0.029
aF0.088
aF0.088
aF0.176
aF0.147
aF0.029
aF0.118
aF0.118
aF0.118
aF0.176
aF0.059
aF0.088
aF0.059
aF0.206
aF0.059
aa(lp21
g10
aF0.118
aF0.118
aF0.118
aF0.147
aF0.324
aF0.147
aF0.147
aF0.118
aF0.176
aF0.206
aF0.235
aF0.118
aF0.176
aF0.088
aF0.176
aa(lp22
g12
aF0.118
aF0.147
aF0.118
aF0.118
aF0.059
aF0.265
aF0.059
aF0.147
aF0.118
aF0.118
aF0.176
aF0.088
aF0.059
aF0.206
aF0.059
aa(lp23
g14
aF0.118
aF0.176
aF0.147
aF0.118
aF0.118
aF0.029
aF0.118
aF0.118
aF0.176
aF0.088
aF0.059
aF0.147
aF0.118
aF0.118
aF0.118
aa(lp24
g16
aF0.324
aF0.147
aF0.176
aF0.176
aF0.206
aF0.235
aF0.147
aF0.353
aF0.206
aF0.235
aF0.324
aF0.118
aF0.059
aF0.294
aF0.324
aasS'Recall'
p25
(lp26
(lp27
g6
aF0.5
aF0.176
aF0.471
aF0.294
aF0.706
aF0.444
aF0.412
aF0.294
aF0.471
aF0.412
aF0.5
aF0.529
aF0.471
aF0.412
aF0.294
aa(lp28
g8
aF0.278
aF0.235
aF0.647
aF0.412
aF0.529
aF0.389
aF0.353
aF0.353
aF0.706
aF0.294
aF0.5
aF0.471
aF0.588
aF0.412
aF0.176
aa(lp29
g10
aF0.5
aF0.471
aF0.471
aF0.647
aF0.529
aF0.556
aF0.647
aF0.353
aF0.471
aF0.588
aF0.611
aF0.529
aF0.412
aF0.471
aF0.471
aa(lp30
g12
aF0.444
aF0.353
aF0.412
aF0.471
aF0.824
aF0.778
aF0.471
aF0.471
aF0.529
aF0.176
aF0.556
aF0.353
aF0.529
aF0.647
aF0.588
aa(lp31
g14
aF0.556
aF0.412
aF0.471
aF0.412
aF0.471
aF0.389
aF0.353
aF0.412
aF0.471
aF0.706
aF0.556
aF0.588
aF0.471
aF0.235
aF0.412
aa(lp32
g16
aF0.667
aF0.294
aF0.588
aF0.529
aF0.588
aF0.5
aF0.471
aF0.706
aF0.647
aF0.353
aF0.667
aF0.529
aF0.412
aF0.706
aF0.824
aasS'Precision'
p33
(lp34
(lp35
g6
aF0.75
aF0.333
aF0.727
aF0.455
aF0.6
aF0.727
aF0.7
aF0.333
aF0.667
aF0.636
aF0.692
aF0.643
aF0.533
aF0.583
aF0.455
aa(lp36
g8
aF0.833
aF0.571
aF0.786
aF0.538
aF0.643
aF0.875
aF0.6
aF0.6
aF0.75
aF0.455
aF0.818
aF0.727
aF0.833
aF0.5
aF0.6
aa(lp37
g10
aF0.692
aF0.667
aF0.667
aF0.688
aF0.45
aF0.667
aF0.688
aF0.6
aF0.571
aF0.588
aF0.579
aF0.692
aF0.538
aF0.727
aF0.571
aa(lp38
g12
aF0.667
aF0.545
aF0.636
aF0.667
aF0.875
aF0.609
aF0.8
aF0.615
aF0.692
aF0.429
aF0.625
aF0.667
aF0.818
aF0.611
aF0.833
aa(lp39
g14
aF0.714
aF0.538
aF0.615
aF0.636
aF0.667
aF0.875
aF0.6
aF0.636
aF0.571
aF0.8
aF0.833
aF0.667
aF0.667
aF0.5
aF0.636
aa(lp40
g16
aF0.522
aF0.5
aF0.625
aF0.6
aF0.588
aF0.529
aF0.615
aF0.5
aF0.611
aF0.429
aF0.522
aF0.692
aF0.778
aF0.545
aF0.56
aasS'F_score'
p41
(lp42
(lp43
g6
aF0.6
aF0.231
aF0.571
aF0.357
aF0.649
aF0.552
aF0.519
aF0.313
aF0.552
aF0.5
aF0.581
aF0.581
aF0.5
aF0.483
aF0.357
aa(lp44
g8
aF0.417
aF0.333
aF0.71
aF0.467
aF0.581
aF0.538
aF0.444
aF0.444
aF0.727
aF0.357
aF0.621
aF0.571
aF0.69
aF0.452
aF0.273
aa(lp45
g10
aF0.581
aF0.552
aF0.552
aF0.667
aF0.486
aF0.606
aF0.667
aF0.444
aF0.516
aF0.588
aF0.595
aF0.6
aF0.467
aF0.571
aF0.516
aa(lp46
g12
aF0.533
aF0.429
aF0.5
aF0.552
aF0.848
aF0.683
aF0.593
aF0.533
aF0.6
aF0.25
aF0.588
aF0.462
aF0.643
aF0.629
aF0.69
aa(lp47
g14
aF0.625
aF0.467
aF0.533
aF0.5
aF0.552
aF0.538
aF0.444
aF0.5
aF0.516
aF0.75
aF0.667
aF0.625
aF0.552
aF0.32
aF0.5
aa(lp48
g16
aF0.585
aF0.37
aF0.606
aF0.563
aF0.588
aF0.514
aF0.533
aF0.585
aF0.629
aF0.387
aF0.585
aF0.6
aF0.538
aF0.615
aF0.667
aasS'Accuracy'
p49
(lp50
(lp51
g6
aF0.769
aF0.608
aF0.765
aF0.647
aF0.745
aF0.75
aF0.745
aF0.569
aF0.745
aF0.725
aF0.75
aF0.745
aF0.686
aF0.706
aF0.647
aa(lp52
g8
aF0.731
aF0.686
aF0.824
aF0.686
aF0.745
aF0.769
aF0.706
aF0.706
aF0.824
aF0.647
aF0.788
aF0.765
aF0.824
aF0.667
aF0.686
aa(lp53
g10
aF0.75
aF0.745
aF0.745
aF0.784
aF0.627
aF0.75
aF0.784
aF0.706
aF0.706
aF0.725
aF0.712
aF0.765
aF0.686
aF0.765
aF0.706
aa(lp54
g12
aF0.731
aF0.686
aF0.725
aF0.745
aF0.902
aF0.75
aF0.784
aF0.725
aF0.765
aF0.647
aF0.731
aF0.725
aF0.804
aF0.745
aF0.824
aa(lp55
g14
aF0.769
aF0.686
aF0.725
aF0.725
aF0.745
aF0.769
aF0.706
aF0.725
aF0.706
aF0.843
aF0.808
aF0.765
aF0.745
aF0.667
aF0.725
aa(lp56
g16
aF0.673
aF0.667
aF0.745
aF0.725
aF0.725
aF0.673
aF0.725
aF0.667
aF0.745
aF0.627
aF0.673
aF0.765
aF0.765
aF0.706
aF0.725
aass.