(dp0
S'xerces'
p1
(dp2
S'AUC'
p3
(lp4
(lp5
S'KNN'
p6
aF0.323
aF0.4
aF0.333
aF0.4
aF0.3
aF0.323
aF0.333
aF0.267
aF0.5
aF0.3
aF0.387
aF0.433
aF0.3
aF0.233
aF0.467
aa(lp7
S'SVM'
p8
aF0.226
aF0.133
aF0.233
aF0.033
aF0.267
aF0.194
aF0.133
aF0.233
aF0.233
aF0.067
aF0.129
aF0.2
aF0.267
aF0.1
aF0.1
aa(lp9
S'NB'
p10
aF0.032
aF0.2
aF0.1
aF0.133
aF0.133
aF0.161
aF0.1
aF0.0
aF0.1
aF0.1
aF0.097
aF0.067
aF0.133
aF0.067
aF0.233
aa(lp11
S'RF'
p12
aF0.258
aF0.233
aF0.167
aF0.167
aF0.1
aF0.161
aF0.233
aF0.167
aF0.233
aF0.133
aF0.129
aF0.333
aF0.033
aF0.167
aF0.167
aa(lp13
S'LR'
p14
aF0.194
aF0.233
aF0.2
aF0.267
aF0.167
aF0.161
aF0.3
aF0.233
aF0.233
aF0.133
aF0.194
aF0.167
aF0.167
aF0.4
aF0.167
aa(lp15
S'DT'
p16
aF0.161
aF0.1
aF0.167
aF0.167
aF0.2
aF0.097
aF0.267
aF0.2
aF0.333
aF0.233
aF0.226
aF0.167
aF0.2
aF0.1
aF0.233
aasS'False_alarm'
p17
(lp18
(lp19
g6
aF0.323
aF0.4
aF0.333
aF0.4
aF0.3
aF0.323
aF0.333
aF0.267
aF0.5
aF0.3
aF0.387
aF0.433
aF0.3
aF0.233
aF0.467
aa(lp20
g8
aF0.226
aF0.133
aF0.233
aF0.033
aF0.267
aF0.194
aF0.133
aF0.233
aF0.233
aF0.067
aF0.129
aF0.2
aF0.267
aF0.1
aF0.1
aa(lp21
g10
aF0.032
aF0.2
aF0.1
aF0.133
aF0.133
aF0.161
aF0.1
aF0.0
aF0.1
aF0.1
aF0.097
aF0.067
aF0.133
aF0.067
aF0.233
aa(lp22
g12
aF0.258
aF0.233
aF0.167
aF0.167
aF0.1
aF0.161
aF0.233
aF0.167
aF0.233
aF0.133
aF0.129
aF0.333
aF0.033
aF0.167
aF0.167
aa(lp23
g14
aF0.194
aF0.233
aF0.2
aF0.267
aF0.167
aF0.161
aF0.3
aF0.233
aF0.233
aF0.133
aF0.194
aF0.167
aF0.167
aF0.4
aF0.167
aa(lp24
g16
aF0.161
aF0.1
aF0.167
aF0.167
aF0.2
aF0.097
aF0.267
aF0.2
aF0.333
aF0.233
aF0.226
aF0.167
aF0.2
aF0.1
aF0.233
aasS'Recall'
p25
(lp26
(lp27
g6
aF0.92
aF0.943
aF0.908
aF0.931
aF0.897
aF0.909
aF0.864
aF0.862
aF0.931
aF0.966
aF0.966
aF0.898
aF0.908
aF0.862
aF0.966
aa(lp28
g8
aF0.92
aF0.875
aF0.943
aF0.943
aF0.885
aF0.932
aF0.898
aF0.92
aF0.943
aF0.966
aF0.943
aF0.932
aF0.908
aF0.908
aF0.92
aa(lp29
g10
aF0.568
aF0.614
aF0.632
aF0.54
aF0.552
aF0.614
aF0.58
aF0.644
aF0.575
aF0.517
aF0.534
aF0.523
aF0.54
aF0.632
aF0.667
aa(lp30
g12
aF0.943
aF0.966
aF1.0
aF0.943
aF0.966
aF0.966
aF0.932
aF0.977
aF0.977
aF0.989
aF0.943
aF0.943
aF0.897
aF1.0
aF0.966
aa(lp31
g14
aF0.943
aF0.909
aF0.908
aF0.954
aF0.92
aF0.909
aF0.92
aF0.908
aF0.989
aF0.908
aF0.943
aF0.886
aF0.931
aF0.943
aF0.92
aa(lp32
g16
aF0.932
aF0.966
aF0.954
aF0.885
aF0.92
aF0.841
aF0.932
aF0.908
aF0.977
aF0.943
aF0.932
aF0.943
aF0.931
aF0.931
aF0.931
aasS'Precision'
p33
(lp34
(lp35
g6
aF0.89
aF0.874
aF0.888
aF0.871
aF0.897
aF0.889
aF0.884
aF0.904
aF0.844
aF0.903
aF0.876
aF0.859
aF0.898
aF0.915
aF0.857
aa(lp36
g8
aF0.92
aF0.951
aF0.921
aF0.988
aF0.906
aF0.932
aF0.952
aF0.92
aF0.921
aF0.977
aF0.954
aF0.932
aF0.908
aF0.963
aF0.964
aa(lp37
g10
aF0.98
aF0.9
aF0.948
aF0.922
aF0.923
aF0.915
aF0.944
aF1.0
aF0.943
aF0.938
aF0.94
aF0.958
aF0.922
aF0.965
aF0.892
aa(lp38
g12
aF0.912
aF0.924
aF0.946
aF0.943
aF0.966
aF0.944
aF0.921
aF0.944
aF0.924
aF0.956
aF0.954
aF0.892
aF0.987
aF0.946
aF0.944
aa(lp39
g14
aF0.933
aF0.92
aF0.929
aF0.912
aF0.941
aF0.941
aF0.9
aF0.919
aF0.925
aF0.952
aF0.933
aF0.94
aF0.942
aF0.872
aF0.941
aa(lp40
g16
aF0.943
aF0.966
aF0.943
aF0.939
aF0.93
aF0.961
aF0.911
aF0.929
aF0.895
aF0.921
aF0.921
aF0.943
aF0.931
aF0.964
aF0.92
aasS'F_score'
p41
(lp42
(lp43
g6
aF0.905
aF0.907
aF0.898
aF0.9
aF0.897
aF0.899
aF0.874
aF0.882
aF0.885
aF0.933
aF0.919
aF0.878
aF0.903
aF0.888
aF0.908
aa(lp44
g8
aF0.92
aF0.911
aF0.932
aF0.965
aF0.895
aF0.932
aF0.924
aF0.92
aF0.932
aF0.971
aF0.949
aF0.932
aF0.908
aF0.935
aF0.941
aa(lp45
g10
aF0.719
aF0.73
aF0.759
aF0.681
aF0.691
aF0.735
aF0.718
aF0.783
aF0.714
aF0.667
aF0.681
aF0.676
aF0.681
aF0.764
aF0.763
aa(lp46
g12
aF0.927
aF0.944
aF0.972
aF0.943
aF0.966
aF0.955
aF0.927
aF0.96
aF0.95
aF0.972
aF0.949
aF0.917
aF0.94
aF0.972
aF0.955
aa(lp47
g14
aF0.938
aF0.914
aF0.919
aF0.933
aF0.93
aF0.925
aF0.91
aF0.913
aF0.956
aF0.929
aF0.938
aF0.912
aF0.936
aF0.906
aF0.93
aa(lp48
g16
aF0.937
aF0.966
aF0.949
aF0.911
aF0.925
aF0.897
aF0.921
aF0.919
aF0.934
aF0.932
aF0.927
aF0.943
aF0.931
aF0.947
aF0.926
aasS'Accuracy'
p49
(lp50
(lp51
g6
aF0.857
aF0.856
aF0.846
aF0.846
aF0.846
aF0.849
aF0.814
aF0.829
aF0.821
aF0.897
aF0.874
aF0.814
aF0.855
aF0.838
aF0.855
aa(lp52
g8
aF0.882
aF0.873
aF0.897
aF0.949
aF0.846
aF0.899
aF0.89
aF0.88
aF0.897
aF0.957
aF0.924
aF0.898
aF0.863
aF0.906
aF0.915
aa(lp53
g10
aF0.672
aF0.661
aF0.701
aF0.624
aF0.632
aF0.672
aF0.661
aF0.735
aF0.658
aF0.615
aF0.63
aF0.627
aF0.624
aF0.709
aF0.692
aa(lp54
g12
aF0.891
aF0.915
aF0.957
aF0.915
aF0.949
aF0.933
aF0.89
aF0.94
aF0.923
aF0.957
aF0.924
aF0.873
aF0.915
aF0.957
aF0.932
aa(lp55
g14
aF0.908
aF0.873
aF0.88
aF0.897
aF0.897
aF0.891
aF0.864
aF0.872
aF0.932
aF0.897
aF0.908
aF0.873
aF0.906
aF0.855
aF0.897
aa(lp56
g16
aF0.908
aF0.949
aF0.923
aF0.872
aF0.889
aF0.857
aF0.881
aF0.88
aF0.897
aF0.897
aF0.891
aF0.915
aF0.897
aF0.923
aF0.889
aass.