(dp0
S'ant'
p1
(dp2
S'False_alarm'
p3
(lp4
(lp5
S'KNN'
p6
aF0.017
aF0.155
aF0.017
aF0.052
aF0.086
aF0.086
aF0.069
aF0.034
aF0.086
aF0.07
aF0.034
aF0.103
aF0.052
aF0.052
aF0.017
aF0.052
aF0.121
aF0.086
aF0.052
aF0.105
aF0.069
aF0.034
aF0.069
aF0.052
aF0.103
aF0.138
aF0.121
aF0.034
aF0.069
aF0.035
aF0.086
aF0.017
aF0.0
aF0.086
aF0.034
aF0.052
aF0.086
aF0.121
aF0.086
aF0.123
aF0.069
aF0.103
aF0.034
aF0.155
aF0.052
aF0.034
aF0.069
aF0.034
aF0.034
aF0.07
aF0.034
aF0.034
aF0.034
aF0.086
aF0.086
aF0.034
aF0.103
aF0.069
aF0.086
aF0.088
aF0.052
aF0.086
aF0.069
aF0.121
aF0.017
aF0.052
aF0.086
aF0.069
aF0.052
aF0.105
aF0.086
aF0.017
aF0.086
aF0.103
aF0.034
aF0.121
aF0.121
aF0.017
aF0.052
aF0.035
aF0.052
aF0.069
aF0.069
aF0.034
aF0.034
aF0.069
aF0.052
aF0.121
aF0.103
aF0.105
aF0.017
aF0.121
aF0.086
aF0.034
aF0.052
aF0.086
aF0.103
aF0.121
aF0.034
aF0.035
aa(lp7
S'SVM'
p8
aF0.034
aF0.017
aF0.017
aF0.034
aF0.034
aF0.052
aF0.034
aF0.069
aF0.052
aF0.0
aF0.052
aF0.0
aF0.086
aF0.017
aF0.034
aF0.052
aF0.069
aF0.017
aF0.017
aF0.035
aF0.0
aF0.103
aF0.052
aF0.017
aF0.017
aF0.052
aF0.052
aF0.034
aF0.017
aF0.035
aF0.017
aF0.052
aF0.034
aF0.017
aF0.034
aF0.017
aF0.052
aF0.121
aF0.017
aF0.035
aF0.017
aF0.034
aF0.086
aF0.0
aF0.052
aF0.069
aF0.034
aF0.034
aF0.034
aF0.018
aF0.034
aF0.034
aF0.052
aF0.052
aF0.086
aF0.0
aF0.034
aF0.034
aF0.052
aF0.0
aF0.017
aF0.034
aF0.052
aF0.052
aF0.017
aF0.052
aF0.0
aF0.034
aF0.0
aF0.088
aF0.103
aF0.034
aF0.086
aF0.0
aF0.017
aF0.017
aF0.017
aF0.034
aF0.034
aF0.07
aF0.052
aF0.017
aF0.052
aF0.0
aF0.034
aF0.034
aF0.017
aF0.069
aF0.069
aF0.018
aF0.052
aF0.034
aF0.052
aF0.052
aF0.034
aF0.052
aF0.034
aF0.0
aF0.017
aF0.035
aa(lp9
S'NB'
p10
aF0.138
aF0.172
aF0.121
aF0.103
aF0.19
aF0.103
aF0.121
aF0.086
aF0.086
aF0.07
aF0.121
aF0.069
aF0.19
aF0.138
aF0.121
aF0.017
aF0.086
aF0.103
aF0.155
aF0.193
aF0.052
aF0.138
aF0.086
aF0.086
aF0.138
aF0.172
aF0.103
aF0.121
aF0.121
aF0.175
aF0.103
aF0.052
aF0.121
aF0.172
aF0.155
aF0.121
aF0.034
aF0.155
aF0.052
aF0.158
aF0.121
aF0.086
aF0.086
aF0.19
aF0.138
aF0.19
aF0.103
aF0.103
aF0.138
aF0.07
aF0.121
aF0.103
aF0.103
aF0.19
aF0.069
aF0.138
aF0.069
aF0.172
aF0.103
aF0.158
aF0.138
aF0.121
aF0.121
aF0.121
aF0.052
aF0.207
aF0.069
aF0.121
aF0.19
aF0.088
aF0.259
aF0.086
aF0.155
aF0.138
aF0.069
aF0.069
aF0.207
aF0.069
aF0.103
aF0.07
aF0.138
aF0.069
aF0.086
aF0.19
aF0.207
aF0.207
aF0.103
aF0.086
aF0.069
aF0.07
aF0.121
aF0.172
aF0.086
aF0.069
aF0.121
aF0.121
aF0.121
aF0.121
aF0.138
aF0.14
aa(lp11
S'RF'
p12
aF0.017
aF0.069
aF0.052
aF0.138
aF0.052
aF0.034
aF0.069
aF0.19
aF0.069
aF0.07
aF0.052
aF0.017
aF0.034
aF0.103
aF0.086
aF0.086
aF0.121
aF0.069
aF0.052
aF0.07
aF0.034
aF0.103
aF0.052
aF0.0
aF0.052
aF0.052
aF0.017
aF0.103
aF0.052
aF0.105
aF0.034
aF0.034
aF0.069
aF0.069
aF0.086
aF0.086
aF0.034
aF0.103
aF0.052
aF0.088
aF0.052
aF0.086
aF0.034
aF0.034
aF0.017
aF0.069
aF0.069
aF0.103
aF0.086
aF0.07
aF0.034
aF0.086
aF0.034
aF0.086
aF0.034
aF0.103
aF0.034
aF0.069
aF0.103
aF0.07
aF0.052
aF0.052
aF0.121
aF0.034
aF0.121
aF0.034
aF0.052
aF0.086
aF0.052
aF0.123
aF0.052
aF0.052
aF0.121
aF0.052
aF0.052
aF0.034
aF0.034
aF0.052
aF0.086
aF0.053
aF0.034
aF0.052
aF0.086
aF0.103
aF0.034
aF0.103
aF0.052
aF0.086
aF0.052
aF0.053
aF0.017
aF0.069
aF0.017
aF0.052
aF0.086
aF0.086
aF0.155
aF0.103
aF0.069
aF0.053
aa(lp13
S'LR'
p14
aF0.017
aF0.034
aF0.138
aF0.0
aF0.017
aF0.069
aF0.052
aF0.086
aF0.052
aF0.053
aF0.034
aF0.086
aF0.034
aF0.052
aF0.034
aF0.052
aF0.069
aF0.052
aF0.034
aF0.088
aF0.034
aF0.052
aF0.086
aF0.069
aF0.034
aF0.034
aF0.052
aF0.052
aF0.052
aF0.088
aF0.052
aF0.052
aF0.052
aF0.052
aF0.052
aF0.034
aF0.069
aF0.069
aF0.034
aF0.07
aF0.069
aF0.069
aF0.0
aF0.034
aF0.069
aF0.103
aF0.034
aF0.017
aF0.103
aF0.035
aF0.034
aF0.034
aF0.017
aF0.034
aF0.052
aF0.052
aF0.103
aF0.069
aF0.121
aF0.018
aF0.017
aF0.103
aF0.086
aF0.086
aF0.034
aF0.052
aF0.069
aF0.052
aF0.017
aF0.035
aF0.069
aF0.052
aF0.069
aF0.052
aF0.034
aF0.086
aF0.052
aF0.034
aF0.052
aF0.018
aF0.034
aF0.103
aF0.069
aF0.069
aF0.0
aF0.017
aF0.052
aF0.069
aF0.086
aF0.018
aF0.103
aF0.138
aF0.017
aF0.034
aF0.017
aF0.069
aF0.017
aF0.034
aF0.0
aF0.053
aa(lp15
S'DT'
p16
aF0.121
aF0.207
aF0.121
aF0.052
aF0.121
aF0.138
aF0.207
aF0.155
aF0.138
aF0.175
aF0.138
aF0.172
aF0.155
aF0.103
aF0.121
aF0.103
aF0.086
aF0.224
aF0.103
aF0.123
aF0.172
aF0.172
aF0.224
aF0.155
aF0.121
aF0.19
aF0.19
aF0.155
aF0.207
aF0.175
aF0.086
aF0.241
aF0.138
aF0.207
aF0.121
aF0.138
aF0.155
aF0.172
aF0.103
aF0.211
aF0.155
aF0.052
aF0.138
aF0.155
aF0.138
aF0.155
aF0.069
aF0.207
aF0.19
aF0.105
aF0.121
aF0.121
aF0.241
aF0.138
aF0.138
aF0.19
aF0.172
aF0.155
aF0.224
aF0.193
aF0.121
aF0.207
aF0.155
aF0.155
aF0.121
aF0.207
aF0.172
aF0.155
aF0.207
aF0.14
aF0.224
aF0.138
aF0.172
aF0.086
aF0.19
aF0.207
aF0.121
aF0.172
aF0.172
aF0.158
aF0.155
aF0.103
aF0.155
aF0.155
aF0.172
aF0.121
aF0.19
aF0.121
aF0.121
aF0.053
aF0.103
aF0.224
aF0.172
aF0.138
aF0.121
aF0.241
aF0.241
aF0.103
aF0.069
aF0.246
aasS'Recall'
p17
(lp18
(lp19
g6
aF0.412
aF0.235
aF0.471
aF0.235
aF0.412
aF0.529
aF0.313
aF0.188
aF0.375
aF0.375
aF0.471
aF0.176
aF0.529
aF0.471
aF0.471
aF0.176
aF0.313
aF0.25
aF0.375
aF0.5
aF0.412
aF0.353
aF0.353
aF0.294
aF0.471
aF0.647
aF0.188
aF0.188
aF0.375
aF0.438
aF0.294
aF0.353
aF0.235
aF0.471
aF0.529
aF0.353
aF0.625
aF0.375
aF0.063
aF0.375
aF0.412
aF0.353
aF0.294
aF0.353
aF0.353
aF0.294
aF0.563
aF0.313
aF0.5
aF0.125
aF0.294
aF0.471
aF0.412
aF0.176
aF0.471
aF0.235
aF0.563
aF0.25
aF0.375
aF0.25
aF0.412
aF0.412
aF0.294
aF0.412
aF0.353
aF0.353
aF0.125
aF0.5
aF0.5
aF0.25
aF0.412
aF0.294
aF0.412
aF0.353
aF0.353
aF0.294
aF0.25
aF0.563
aF0.375
aF0.313
aF0.353
aF0.529
aF0.353
aF0.235
aF0.353
aF0.176
aF0.5
aF0.375
aF0.563
aF0.375
aF0.294
aF0.471
aF0.471
aF0.471
aF0.059
aF0.471
aF0.375
aF0.188
aF0.375
aF0.375
aa(lp20
g8
aF0.353
aF0.412
aF0.412
aF0.176
aF0.353
aF0.412
aF0.375
aF0.438
aF0.5
aF0.313
aF0.118
aF0.353
aF0.353
aF0.294
aF0.353
aF0.529
aF0.563
aF0.375
aF0.563
aF0.188
aF0.412
aF0.235
aF0.353
aF0.412
aF0.412
aF0.353
aF0.375
aF0.563
aF0.375
aF0.313
aF0.235
aF0.176
aF0.471
aF0.353
aF0.471
aF0.235
aF0.625
aF0.563
aF0.313
aF0.375
aF0.235
aF0.118
aF0.353
aF0.353
aF0.294
aF0.471
aF0.375
aF0.563
aF0.438
aF0.438
aF0.353
aF0.235
aF0.118
aF0.353
aF0.412
aF0.471
aF0.375
aF0.438
aF0.438
aF0.25
aF0.353
aF0.294
aF0.471
aF0.471
aF0.471
aF0.235
aF0.25
aF0.375
aF0.375
aF0.5
aF0.353
aF0.529
aF0.235
aF0.294
aF0.588
aF0.412
aF0.188
aF0.188
aF0.375
aF0.5
aF0.412
aF0.412
aF0.471
aF0.412
aF0.412
aF0.176
aF0.25
aF0.5
aF0.313
aF0.313
aF0.412
aF0.412
aF0.176
aF0.471
aF0.471
aF0.235
aF0.313
aF0.563
aF0.313
aF0.313
aa(lp21
g10
aF0.706
aF0.471
aF0.353
aF0.412
aF0.353
aF0.647
aF0.625
aF0.625
aF0.625
aF0.625
aF0.471
aF0.471
aF0.294
aF0.647
aF0.706
aF0.765
aF0.563
aF0.688
aF0.375
aF0.5
aF0.647
aF0.529
aF0.529
aF0.471
aF0.647
aF0.529
aF0.563
aF0.5
aF0.563
aF0.563
aF0.647
aF0.588
aF0.529
aF0.529
aF0.529
aF0.529
aF0.375
aF0.625
aF0.5
aF0.625
aF0.529
aF0.353
aF0.529
aF0.412
aF0.471
aF0.882
aF0.438
aF0.563
aF0.563
aF0.625
aF0.765
aF0.412
aF0.588
aF0.647
aF0.529
aF0.529
aF0.625
aF0.5
aF0.625
aF0.313
aF0.412
aF0.588
aF0.471
aF0.529
aF0.529
aF0.824
aF0.438
aF0.563
aF0.813
aF0.313
aF0.647
aF0.471
aF0.588
aF0.588
aF0.588
aF0.529
aF0.438
aF0.688
aF0.5
aF0.5
aF0.353
aF0.706
aF0.529
aF0.588
aF0.647
aF0.824
aF0.5
aF0.313
aF0.563
aF0.438
aF0.471
aF0.529
aF0.412
aF0.588
aF0.529
aF0.647
aF0.563
aF0.625
aF0.438
aF0.5
aa(lp22
g12
aF0.118
aF0.294
aF0.588
aF0.529
aF0.529
aF0.471
aF0.438
aF0.313
aF0.375
aF0.5
aF0.176
aF0.294
aF0.412
aF0.353
aF0.588
aF0.588
aF0.25
aF0.438
aF0.438
aF0.188
aF0.412
aF0.412
aF0.235
aF0.588
aF0.294
aF0.588
aF0.375
aF0.688
aF0.375
aF0.5
aF0.529
aF0.235
aF0.353
aF0.529
aF0.647
aF0.471
aF0.125
aF0.375
aF0.438
aF0.438
aF0.471
aF0.529
aF0.471
aF0.529
aF0.294
aF0.294
aF0.5
aF0.688
aF0.125
aF0.438
aF0.412
aF0.471
aF0.529
aF0.235
aF0.353
aF0.353
aF0.5
aF0.375
aF0.5
aF0.375
aF0.529
aF0.529
aF0.588
aF0.353
aF0.294
aF0.294
aF0.438
aF0.25
aF0.313
aF0.25
aF0.529
aF0.647
aF0.647
aF0.353
aF0.353
aF0.647
aF0.313
aF0.188
aF0.375
aF0.375
aF0.176
aF0.235
aF0.412
aF0.529
aF0.412
aF0.588
aF0.375
aF0.438
aF0.688
aF0.438
aF0.412
aF0.294
aF0.412
aF0.353
aF0.471
aF0.294
aF0.25
aF0.563
aF0.625
aF0.25
aa(lp23
g14
aF0.235
aF0.471
aF0.294
aF0.353
aF0.294
aF0.471
aF0.625
aF0.5
aF0.625
aF0.188
aF0.412
aF0.412
aF0.353
aF0.235
aF0.529
aF0.529
aF0.313
aF0.375
aF0.313
aF0.375
aF0.412
aF0.529
aF0.235
aF0.529
aF0.353
aF0.471
aF0.313
aF0.313
aF0.375
aF0.375
aF0.353
aF0.471
aF0.353
aF0.294
aF0.412
aF0.529
aF0.438
aF0.438
aF0.375
aF0.375
aF0.412
aF0.353
aF0.471
aF0.294
aF0.471
aF0.235
aF0.438
aF0.375
aF0.5
aF0.438
aF0.294
aF0.588
aF0.294
aF0.235
aF0.588
aF0.412
aF0.625
aF0.438
aF0.25
aF0.25
aF0.353
aF0.294
aF0.353
aF0.588
aF0.412
aF0.353
aF0.5
aF0.5
aF0.375
aF0.313
aF0.529
aF0.412
aF0.412
aF0.471
aF0.412
aF0.412
aF0.25
aF0.438
aF0.313
aF0.188
aF0.529
aF0.412
aF0.059
aF0.353
aF0.294
aF0.353
aF0.625
aF0.5
aF0.5
aF0.375
aF0.412
aF0.353
aF0.353
aF0.529
aF0.471
aF0.529
aF0.25
aF0.313
aF0.313
aF0.625
aa(lp24
g16
aF0.588
aF0.529
aF0.647
aF0.353
aF0.353
aF0.294
aF0.688
aF0.563
aF0.438
aF0.438
aF0.471
aF0.176
aF0.529
aF0.353
aF0.471
aF0.294
aF0.313
aF0.313
aF0.313
aF0.313
aF0.412
aF0.471
aF0.471
aF0.529
aF0.529
aF0.471
aF0.313
aF0.625
aF0.5
aF0.438
aF0.588
aF0.471
aF0.353
aF0.588
aF0.529
aF0.235
aF0.375
aF0.563
aF0.5
aF0.563
aF0.353
aF0.706
aF0.647
aF0.471
aF0.529
aF0.294
aF0.5
aF0.313
aF0.563
aF0.5
aF0.647
aF0.471
aF0.353
aF0.529
aF0.529
aF0.529
aF0.375
aF0.563
aF0.5
aF0.625
aF0.294
aF0.588
aF0.294
aF0.706
aF0.353
aF0.588
aF0.75
aF0.5
aF0.563
aF0.563
aF0.529
aF0.529
aF0.588
aF0.294
aF0.235
aF0.529
aF0.375
aF0.438
aF0.313
aF0.563
aF0.588
aF0.353
aF0.353
aF0.588
aF0.353
aF0.412
aF0.625
aF0.25
aF0.438
aF0.438
aF0.471
aF0.412
aF0.471
aF0.588
aF0.529
aF0.176
aF0.313
aF0.563
aF0.375
aF0.5
aasS'Precision'
p25
(lp26
(lp27
g6
aF0.875
aF0.308
aF0.889
aF0.571
aF0.583
aF0.643
aF0.556
aF0.6
aF0.545
aF0.6
aF0.8
aF0.333
aF0.75
aF0.727
aF0.889
aF0.5
aF0.417
aF0.444
aF0.667
aF0.571
aF0.636
aF0.75
aF0.6
aF0.625
aF0.571
aF0.579
aF0.3
aF0.6
aF0.6
aF0.778
aF0.5
aF0.857
aF1.0
aF0.615
aF0.818
aF0.667
aF0.667
aF0.462
aF0.167
aF0.462
aF0.636
aF0.5
aF0.714
aF0.4
aF0.667
aF0.714
aF0.692
aF0.714
aF0.8
aF0.333
aF0.714
aF0.8
aF0.778
aF0.375
aF0.615
aF0.667
aF0.6
aF0.5
aF0.545
aF0.444
aF0.7
aF0.583
aF0.556
aF0.5
aF0.857
aF0.667
aF0.286
aF0.667
aF0.727
aF0.4
aF0.583
aF0.833
aF0.583
aF0.5
aF0.75
aF0.417
aF0.364
aF0.9
aF0.667
aF0.714
aF0.667
aF0.692
aF0.6
aF0.667
aF0.75
aF0.429
aF0.727
aF0.462
aF0.6
aF0.5
aF0.833
aF0.533
aF0.615
aF0.8
aF0.25
aF0.615
aF0.5
aF0.3
aF0.75
aF0.75
aa(lp28
g8
aF0.75
aF0.875
aF0.875
aF0.6
aF0.75
aF0.7
aF0.75
aF0.636
aF0.727
aF1.0
aF0.4
aF1.0
aF0.545
aF0.833
aF0.75
aF0.75
aF0.692
aF0.857
aF0.9
aF0.6
aF1.0
aF0.4
aF0.667
aF0.875
aF0.875
aF0.667
aF0.667
aF0.818
aF0.857
aF0.714
aF0.8
aF0.5
aF0.8
aF0.857
aF0.8
aF0.8
aF0.769
aF0.563
aF0.833
aF0.75
aF0.8
aF0.5
aF0.545
aF1.0
aF0.625
aF0.667
aF0.75
aF0.818
aF0.778
aF0.875
aF0.75
aF0.667
aF0.4
aF0.667
aF0.583
aF1.0
aF0.75
aF0.778
aF0.7
aF1.0
aF0.857
aF0.714
aF0.727
aF0.727
aF0.889
aF0.571
aF1.0
aF0.75
aF1.0
aF0.615
aF0.5
aF0.818
aF0.444
aF1.0
aF0.909
aF0.875
aF0.75
aF0.6
aF0.75
aF0.667
aF0.7
aF0.875
aF0.727
aF1.0
aF0.778
aF0.6
aF0.8
aF0.667
aF0.556
aF0.833
aF0.7
aF0.778
aF0.5
aF0.727
aF0.8
aF0.571
aF0.714
aF1.0
aF0.833
aF0.714
aa(lp29
g10
aF0.6
aF0.444
aF0.462
aF0.538
aF0.353
aF0.647
aF0.588
aF0.667
aF0.667
aF0.714
aF0.533
aF0.667
aF0.313
aF0.579
aF0.632
aF0.929
aF0.643
aF0.647
aF0.4
aF0.421
aF0.786
aF0.529
aF0.643
aF0.615
aF0.579
aF0.474
aF0.6
aF0.533
aF0.563
aF0.474
aF0.647
aF0.769
aF0.563
aF0.474
aF0.5
aF0.563
aF0.75
aF0.526
aF0.727
aF0.526
aF0.563
aF0.545
aF0.643
aF0.389
aF0.5
aF0.577
aF0.538
aF0.6
aF0.529
aF0.714
aF0.65
aF0.538
aF0.625
aF0.5
aF0.692
aF0.529
aF0.714
aF0.444
aF0.625
aF0.357
aF0.467
aF0.588
aF0.533
aF0.563
aF0.75
aF0.538
aF0.636
aF0.563
aF0.542
aF0.5
aF0.423
aF0.615
aF0.526
aF0.556
aF0.714
aF0.692
aF0.368
aF0.733
aF0.571
aF0.667
aF0.429
aF0.75
aF0.643
aF0.476
aF0.478
aF0.538
aF0.571
aF0.5
aF0.692
aF0.636
aF0.533
aF0.474
aF0.583
aF0.714
aF0.563
aF0.611
aF0.563
aF0.588
aF0.467
aF0.5
aa(lp30
g12
aF0.667
aF0.556
aF0.769
aF0.529
aF0.75
aF0.8
aF0.636
aF0.313
aF0.6
aF0.667
aF0.5
aF0.833
aF0.778
aF0.5
aF0.667
aF0.667
aF0.364
aF0.636
aF0.7
aF0.429
aF0.778
aF0.538
aF0.571
aF1.0
aF0.625
aF0.769
aF0.857
aF0.647
aF0.667
aF0.571
aF0.818
aF0.667
aF0.6
aF0.692
aF0.688
aF0.615
aF0.5
aF0.5
aF0.7
aF0.583
aF0.727
aF0.643
aF0.8
aF0.818
aF0.833
aF0.556
aF0.667
aF0.647
aF0.286
aF0.636
aF0.778
aF0.615
aF0.818
aF0.444
aF0.75
aF0.5
aF0.8
aF0.6
aF0.571
aF0.6
aF0.75
aF0.75
aF0.588
aF0.75
aF0.417
aF0.714
aF0.7
aF0.444
aF0.625
aF0.364
aF0.75
aF0.786
aF0.611
aF0.667
aF0.667
aF0.846
aF0.714
aF0.5
aF0.545
aF0.667
aF0.6
aF0.571
aF0.583
aF0.6
aF0.778
aF0.625
aF0.667
aF0.583
aF0.786
aF0.7
aF0.875
aF0.556
aF0.875
aF0.667
aF0.615
aF0.5
aF0.308
aF0.6
aF0.714
aF0.571
aa(lp31
g14
aF0.8
aF0.8
aF0.385
aF1.0
aF0.833
aF0.667
aF0.769
aF0.615
aF0.769
aF0.5
aF0.778
aF0.583
aF0.75
aF0.571
aF0.818
aF0.75
aF0.556
aF0.667
aF0.714
aF0.545
aF0.778
aF0.75
aF0.444
aF0.692
aF0.75
aF0.8
aF0.625
aF0.625
aF0.667
aF0.545
aF0.667
aF0.727
aF0.667
aF0.625
aF0.7
aF0.818
aF0.636
aF0.636
aF0.75
aF0.6
aF0.636
aF0.6
aF1.0
aF0.714
aF0.667
aF0.4
aF0.778
aF0.857
aF0.571
aF0.778
aF0.714
aF0.833
aF0.833
aF0.667
aF0.769
aF0.7
aF0.625
aF0.636
aF0.364
aF0.8
aF0.857
aF0.455
aF0.545
aF0.667
aF0.778
aF0.667
aF0.667
aF0.727
aF0.857
aF0.714
aF0.692
aF0.7
aF0.636
aF0.727
aF0.778
aF0.583
aF0.571
aF0.778
aF0.625
aF0.75
aF0.818
aF0.538
aF0.2
aF0.6
aF1.0
aF0.857
aF0.769
aF0.667
aF0.615
aF0.857
aF0.538
aF0.429
aF0.857
aF0.818
aF0.889
aF0.692
aF0.8
aF0.714
aF1.0
aF0.769
aa(lp32
g16
aF0.588
aF0.429
aF0.611
aF0.667
aF0.462
aF0.385
aF0.478
aF0.5
aF0.467
aF0.412
aF0.5
aF0.231
aF0.5
aF0.5
aF0.533
aF0.455
aF0.5
aF0.278
aF0.455
aF0.417
aF0.412
aF0.444
aF0.381
aF0.5
aF0.563
aF0.421
aF0.313
aF0.526
aF0.4
aF0.412
aF0.667
aF0.364
aF0.429
aF0.455
aF0.563
aF0.333
aF0.4
aF0.474
aF0.571
aF0.429
aF0.4
aF0.8
aF0.579
aF0.471
aF0.529
aF0.357
aF0.667
aF0.294
aF0.45
aF0.571
aF0.611
aF0.533
aF0.3
aF0.529
aF0.529
aF0.45
aF0.375
aF0.5
aF0.381
aF0.476
aF0.417
aF0.455
aF0.357
aF0.571
aF0.462
aF0.455
aF0.545
aF0.471
aF0.429
aF0.529
aF0.409
aF0.529
aF0.5
aF0.5
aF0.267
aF0.429
aF0.462
aF0.412
aF0.333
aF0.5
aF0.526
aF0.5
aF0.4
aF0.526
aF0.375
aF0.5
aF0.476
aF0.364
aF0.5
aF0.7
aF0.571
aF0.35
aF0.444
aF0.556
aF0.563
aF0.176
aF0.263
aF0.6
aF0.6
aF0.364
aasS'F_score'
p33
(lp34
(lp35
g6
aF0.56
aF0.267
aF0.615
aF0.333
aF0.483
aF0.581
aF0.4
aF0.286
aF0.444
aF0.462
aF0.593
aF0.231
aF0.621
aF0.571
aF0.615
aF0.261
aF0.357
aF0.32
aF0.48
aF0.533
aF0.5
aF0.48
aF0.444
aF0.4
aF0.516
aF0.611
aF0.231
aF0.286
aF0.462
aF0.56
aF0.37
aF0.5
aF0.381
aF0.533
aF0.643
aF0.462
aF0.645
aF0.414
aF0.091
aF0.414
aF0.5
aF0.414
aF0.417
aF0.375
aF0.462
aF0.417
aF0.621
aF0.435
aF0.615
aF0.182
aF0.417
aF0.593
aF0.538
aF0.24
aF0.533
aF0.348
aF0.581
aF0.333
aF0.444
aF0.32
aF0.519
aF0.483
aF0.385
aF0.452
aF0.5
aF0.462
aF0.174
aF0.571
aF0.593
aF0.308
aF0.483
aF0.435
aF0.483
aF0.414
aF0.48
aF0.345
aF0.296
aF0.692
aF0.48
aF0.435
aF0.462
aF0.6
aF0.444
aF0.348
aF0.48
aF0.25
aF0.593
aF0.414
aF0.581
aF0.429
aF0.435
aF0.5
aF0.533
aF0.593
aF0.095
aF0.533
aF0.429
aF0.231
aF0.5
aF0.5
aa(lp36
g8
aF0.48
aF0.56
aF0.56
aF0.273
aF0.48
aF0.519
aF0.5
aF0.519
aF0.593
aF0.476
aF0.182
aF0.522
aF0.429
aF0.435
aF0.48
aF0.621
aF0.621
aF0.522
aF0.692
aF0.286
aF0.583
aF0.296
aF0.462
aF0.56
aF0.56
aF0.462
aF0.48
aF0.667
aF0.522
aF0.435
aF0.364
aF0.261
aF0.593
aF0.5
aF0.593
aF0.364
aF0.69
aF0.563
aF0.455
aF0.5
aF0.364
aF0.19
aF0.429
aF0.522
aF0.4
aF0.552
aF0.5
aF0.667
aF0.56
aF0.583
aF0.48
aF0.348
aF0.182
aF0.462
aF0.483
aF0.64
aF0.5
aF0.56
aF0.538
aF0.4
aF0.5
aF0.417
aF0.571
aF0.571
aF0.615
aF0.333
aF0.4
aF0.5
aF0.545
aF0.552
aF0.414
aF0.643
aF0.308
aF0.455
aF0.714
aF0.56
aF0.3
aF0.286
aF0.5
aF0.571
aF0.519
aF0.56
aF0.571
aF0.583
aF0.538
aF0.273
aF0.381
aF0.571
aF0.4
aF0.455
aF0.519
aF0.538
aF0.261
aF0.571
aF0.593
aF0.333
aF0.435
aF0.72
aF0.455
aF0.435
aa(lp37
g10
aF0.649
aF0.457
aF0.4
aF0.467
aF0.353
aF0.647
aF0.606
aF0.645
aF0.645
aF0.667
aF0.5
aF0.552
aF0.303
aF0.611
aF0.667
aF0.839
aF0.6
aF0.667
aF0.387
aF0.457
aF0.71
aF0.529
aF0.581
aF0.533
aF0.611
aF0.5
aF0.581
aF0.516
aF0.563
aF0.514
aF0.647
aF0.667
aF0.545
aF0.5
aF0.514
aF0.545
aF0.5
aF0.571
aF0.593
aF0.571
aF0.545
aF0.429
aF0.581
aF0.4
aF0.485
aF0.698
aF0.483
aF0.581
aF0.545
aF0.667
aF0.703
aF0.467
aF0.606
aF0.564
aF0.6
aF0.529
aF0.667
aF0.471
aF0.625
aF0.333
aF0.437
aF0.588
aF0.5
aF0.545
aF0.621
aF0.651
aF0.519
aF0.563
aF0.65
aF0.385
aF0.512
aF0.533
aF0.556
aF0.571
aF0.645
aF0.6
aF0.4
aF0.71
aF0.533
aF0.571
aF0.387
aF0.727
aF0.581
aF0.526
aF0.55
aF0.651
aF0.533
aF0.385
aF0.621
aF0.519
aF0.5
aF0.5
aF0.483
aF0.645
aF0.545
aF0.629
aF0.563
aF0.606
aF0.452
aF0.5
aa(lp38
g12
aF0.2
aF0.385
aF0.667
aF0.529
aF0.621
aF0.593
aF0.519
aF0.313
aF0.462
aF0.571
aF0.261
aF0.435
aF0.538
aF0.414
aF0.625
aF0.625
aF0.296
aF0.519
aF0.538
aF0.261
aF0.538
aF0.467
aF0.333
aF0.741
aF0.4
aF0.667
aF0.522
aF0.667
aF0.48
aF0.533
aF0.643
aF0.348
aF0.444
aF0.6
aF0.667
aF0.533
aF0.2
aF0.429
aF0.538
aF0.5
aF0.571
aF0.581
aF0.593
aF0.643
aF0.435
aF0.385
aF0.571
aF0.667
aF0.174
aF0.519
aF0.538
aF0.533
aF0.643
aF0.308
aF0.48
aF0.414
aF0.615
aF0.462
aF0.533
aF0.462
aF0.621
aF0.621
aF0.588
aF0.48
aF0.345
aF0.417
aF0.538
aF0.32
aF0.417
aF0.296
aF0.621
aF0.71
aF0.629
aF0.462
aF0.462
aF0.733
aF0.435
aF0.273
aF0.444
aF0.48
aF0.273
aF0.333
aF0.483
aF0.563
aF0.538
aF0.606
aF0.48
aF0.5
aF0.733
aF0.538
aF0.56
aF0.385
aF0.56
aF0.462
aF0.533
aF0.37
aF0.276
aF0.581
aF0.667
aF0.348
aa(lp39
g14
aF0.364
aF0.593
aF0.333
aF0.522
aF0.435
aF0.552
aF0.69
aF0.552
aF0.69
aF0.273
aF0.538
aF0.483
aF0.48
aF0.333
aF0.643
aF0.621
aF0.4
aF0.48
aF0.435
aF0.444
aF0.538
aF0.621
aF0.308
aF0.6
aF0.48
aF0.593
aF0.417
aF0.417
aF0.48
aF0.444
aF0.462
aF0.571
aF0.462
aF0.4
aF0.519
aF0.643
aF0.519
aF0.519
aF0.5
aF0.462
aF0.5
aF0.444
aF0.64
aF0.417
aF0.552
aF0.296
aF0.56
aF0.522
aF0.533
aF0.56
aF0.417
aF0.69
aF0.435
aF0.348
aF0.667
aF0.519
aF0.625
aF0.519
aF0.296
aF0.381
aF0.5
aF0.357
aF0.429
aF0.625
aF0.538
aF0.462
aF0.571
aF0.593
aF0.522
aF0.435
aF0.6
aF0.519
aF0.5
aF0.571
aF0.538
aF0.483
aF0.348
aF0.56
aF0.417
aF0.3
aF0.643
aF0.467
aF0.091
aF0.444
aF0.455
aF0.5
aF0.69
aF0.571
aF0.552
aF0.522
aF0.467
aF0.387
aF0.5
aF0.643
aF0.615
aF0.6
aF0.381
aF0.435
aF0.476
aF0.69
aa(lp40
g16
aF0.588
aF0.474
aF0.629
aF0.462
aF0.4
aF0.333
aF0.564
aF0.529
aF0.452
aF0.424
aF0.485
aF0.2
aF0.514
aF0.414
aF0.5
aF0.357
aF0.385
aF0.294
aF0.37
aF0.357
aF0.412
aF0.457
aF0.421
aF0.514
aF0.545
aF0.444
aF0.313
aF0.571
aF0.444
aF0.424
aF0.625
aF0.41
aF0.387
aF0.513
aF0.545
aF0.276
aF0.387
aF0.514
aF0.533
aF0.486
aF0.375
aF0.75
aF0.611
aF0.471
aF0.529
aF0.323
aF0.571
aF0.303
aF0.5
aF0.533
aF0.629
aF0.5
aF0.324
aF0.529
aF0.529
aF0.486
aF0.375
aF0.529
aF0.432
aF0.541
aF0.345
aF0.513
aF0.323
aF0.632
aF0.4
aF0.513
aF0.632
aF0.485
aF0.486
aF0.545
aF0.462
aF0.529
aF0.541
aF0.37
aF0.25
aF0.474
aF0.414
aF0.424
aF0.323
aF0.529
aF0.556
aF0.414
aF0.375
aF0.556
aF0.364
aF0.452
aF0.541
aF0.296
aF0.467
aF0.538
aF0.516
aF0.378
aF0.457
aF0.571
aF0.545
aF0.176
aF0.286
aF0.581
aF0.462
aF0.421
aasS'Accuracy'
p41
(lp42
(lp43
g6
aF0.853
aF0.707
aF0.867
aF0.787
aF0.8
aF0.827
aF0.797
aF0.797
aF0.797
aF0.808
aF0.853
aF0.733
aF0.853
aF0.84
aF0.867
aF0.773
aF0.757
aF0.77
aF0.824
aF0.808
aF0.813
aF0.827
aF0.8
aF0.8
aF0.8
aF0.813
aF0.73
aF0.797
aF0.811
aF0.849
aF0.773
aF0.84
aF0.827
aF0.813
aF0.867
aF0.813
aF0.851
aF0.77
aF0.73
aF0.767
aF0.813
aF0.773
aF0.813
aF0.733
aF0.813
aF0.813
aF0.851
aF0.824
aF0.865
aF0.753
aF0.813
aF0.853
aF0.84
aF0.747
aF0.813
aF0.8
aF0.824
aF0.784
aF0.797
aF0.767
aF0.827
aF0.8
aF0.787
aF0.773
aF0.84
aF0.813
aF0.743
aF0.838
aF0.851
aF0.753
aF0.8
aF0.827
aF0.8
aF0.773
aF0.827
aF0.747
aF0.743
aF0.892
aF0.824
aF0.822
aF0.813
aF0.84
aF0.8
aF0.8
aF0.827
aF0.76
aF0.851
aF0.77
aF0.824
aF0.781
aF0.827
aF0.787
aF0.813
aF0.853
aF0.747
aF0.813
aF0.784
aF0.73
aF0.838
aF0.836
aa(lp44
g8
aF0.827
aF0.853
aF0.853
aF0.787
aF0.827
aF0.827
aF0.838
aF0.824
aF0.851
aF0.849
aF0.76
aF0.853
aF0.787
aF0.827
aF0.827
aF0.853
aF0.851
aF0.851
aF0.892
aF0.795
aF0.867
aF0.747
aF0.813
aF0.853
aF0.853
aF0.813
aF0.824
aF0.878
aF0.851
aF0.822
aF0.813
aF0.773
aF0.853
aF0.84
aF0.853
aF0.813
aF0.878
aF0.811
aF0.838
aF0.836
aF0.813
aF0.773
aF0.787
aF0.853
aF0.8
aF0.827
aF0.838
aF0.878
aF0.851
aF0.863
aF0.827
aF0.8
aF0.76
aF0.813
aF0.8
aF0.88
aF0.838
aF0.851
aF0.838
aF0.836
aF0.84
aF0.813
aF0.84
aF0.84
aF0.867
aF0.787
aF0.838
aF0.838
aF0.865
aF0.822
aF0.773
aF0.867
aF0.76
aF0.84
aF0.893
aF0.853
aF0.811
aF0.797
aF0.838
aF0.836
aF0.827
aF0.853
aF0.84
aF0.867
aF0.84
aF0.787
aF0.824
aF0.838
aF0.797
aF0.836
aF0.827
aF0.84
aF0.773
aF0.84
aF0.853
aF0.787
aF0.824
aF0.905
aF0.838
aF0.822
aa(lp45
g10
aF0.827
aF0.747
aF0.76
aF0.787
aF0.707
aF0.84
aF0.824
aF0.851
aF0.851
aF0.863
aF0.787
aF0.827
aF0.693
aF0.813
aF0.84
aF0.933
aF0.838
aF0.851
aF0.743
aF0.74
aF0.88
aF0.787
aF0.827
aF0.813
aF0.813
aF0.76
aF0.824
aF0.797
aF0.811
aF0.767
aF0.84
aF0.867
aF0.8
aF0.76
aF0.773
aF0.8
aF0.838
aF0.797
aF0.851
aF0.795
aF0.8
aF0.787
aF0.827
aF0.72
aF0.773
aF0.827
aF0.797
aF0.824
aF0.797
aF0.863
aF0.853
aF0.787
aF0.827
aF0.773
aF0.84
aF0.787
aF0.865
aF0.757
aF0.838
aF0.726
aF0.76
aF0.813
aF0.787
aF0.8
aF0.853
aF0.8
aF0.824
aF0.811
aF0.811
aF0.781
aF0.72
aF0.813
aF0.787
aF0.8
aF0.853
aF0.84
aF0.716
aF0.878
aF0.811
aF0.836
aF0.747
aF0.88
aF0.827
aF0.76
aF0.76
aF0.8
aF0.811
aF0.784
aF0.851
aF0.822
aF0.787
aF0.76
aF0.8
aF0.853
aF0.8
aF0.827
aF0.811
aF0.824
aF0.77
aF0.781
aa(lp46
g12
aF0.787
aF0.787
aF0.867
aF0.787
aF0.853
aF0.853
aF0.824
aF0.703
aF0.811
aF0.836
aF0.773
aF0.827
aF0.84
aF0.773
aF0.84
aF0.84
aF0.743
aF0.824
aF0.838
aF0.767
aF0.84
aF0.787
aF0.787
aF0.907
aF0.8
aF0.867
aF0.851
aF0.851
aF0.824
aF0.808
aF0.867
aF0.8
aF0.8
aF0.84
aF0.853
aF0.813
aF0.784
aF0.784
aF0.838
aF0.808
aF0.84
aF0.827
aF0.853
aF0.867
aF0.827
aF0.787
aF0.838
aF0.851
aF0.743
aF0.822
aF0.84
aF0.813
aF0.867
aF0.76
aF0.827
aF0.773
aF0.865
aF0.811
aF0.811
aF0.808
aF0.853
aF0.853
aF0.813
aF0.827
aF0.747
aF0.813
aF0.838
aF0.77
aF0.811
aF0.74
aF0.853
aF0.88
aF0.827
aF0.813
aF0.813
aF0.893
aF0.824
aF0.784
aF0.797
aF0.822
aF0.787
aF0.787
aF0.8
aF0.813
aF0.84
aF0.827
aF0.824
aF0.811
aF0.892
aF0.836
aF0.853
aF0.787
aF0.853
aF0.813
aF0.813
aF0.773
aF0.716
aF0.824
aF0.865
aF0.795
aa(lp47
g14
aF0.813
aF0.853
aF0.733
aF0.853
aF0.827
aF0.827
aF0.878
aF0.824
aF0.878
aF0.781
aF0.84
aF0.8
aF0.827
aF0.787
aF0.867
aF0.853
aF0.797
aF0.824
aF0.824
aF0.795
aF0.84
aF0.853
aF0.76
aF0.84
aF0.827
aF0.853
aF0.811
aF0.811
aF0.824
aF0.795
aF0.813
aF0.84
aF0.813
aF0.8
aF0.827
aF0.867
aF0.824
aF0.824
aF0.838
aF0.808
aF0.813
aF0.8
aF0.88
aF0.813
aF0.827
aF0.747
aF0.851
aF0.851
aF0.811
aF0.849
aF0.813
aF0.88
aF0.827
aF0.8
aF0.867
aF0.827
aF0.838
aF0.824
aF0.743
aF0.822
aF0.84
aF0.76
aF0.787
aF0.84
aF0.84
aF0.813
aF0.838
aF0.851
aF0.851
aF0.822
aF0.84
aF0.827
aF0.813
aF0.84
aF0.84
aF0.8
aF0.797
aF0.851
aF0.811
aF0.808
aF0.867
aF0.787
aF0.733
aF0.8
aF0.84
aF0.84
aF0.878
aF0.838
aF0.824
aF0.849
aF0.787
aF0.747
aF0.84
aF0.867
aF0.867
aF0.84
aF0.824
aF0.824
aF0.851
aF0.877
aa(lp48
g16
aF0.813
aF0.733
aF0.827
aF0.813
aF0.76
aF0.733
aF0.77
aF0.784
aF0.77
aF0.74
aF0.773
aF0.68
aF0.773
aF0.773
aF0.787
aF0.76
aF0.784
aF0.676
aF0.77
aF0.753
aF0.733
aF0.747
aF0.707
aF0.773
aF0.8
aF0.733
aF0.703
aF0.797
aF0.73
aF0.74
aF0.84
aF0.693
aF0.747
aF0.747
aF0.8
aF0.72
aF0.743
aF0.77
aF0.811
aF0.74
aF0.733
aF0.893
aF0.813
aF0.76
aF0.787
aF0.72
aF0.838
aF0.689
aF0.757
aF0.808
aF0.827
aF0.787
aF0.667
aF0.787
aF0.787
aF0.747
aF0.73
aF0.784
aF0.716
aF0.767
aF0.747
aF0.747
aF0.72
aF0.813
aF0.76
aF0.747
aF0.811
aF0.77
aF0.743
aF0.795
aF0.72
aF0.787
aF0.773
aF0.773
aF0.68
aF0.733
aF0.77
aF0.743
aF0.716
aF0.781
aF0.787
aF0.773
aF0.733
aF0.787
aF0.72
aF0.773
aF0.77
aF0.743
aF0.784
aF0.836
aF0.8
aF0.693
aF0.747
aF0.8
aF0.8
aF0.627
aF0.662
aF0.824
aF0.811
aF0.699
aass.