(dp0
S'prop'
p1
(dp2
S'False_alarm'
p3
(lp4
(lp5
S'KNN'
p6
aF0.0
aF0.0
aF0.0
aF0.0
aF0.0
aF0.0
aF0.0
aF0.0
aF0.0
aF0.0
aF0.0
aF0.0
aF0.0
aF0.0
aF0.0
aF0.0
aF0.0
aF0.0
aF0.0
aF0.0
aF0.0
aF0.0
aF0.0
aF0.0
aF0.0
aF0.0
aF0.0
aF0.0
aF0.0
aF0.0
aF0.0
aF0.0
aF0.0
aF0.0
aF0.0
aF0.0
aF0.0
aF0.0
aF0.0
aF0.0
aF0.0
aF0.0
aF0.0
aF0.0
aF0.0
aF0.0
aF0.0
aF0.0
aF0.0
aF0.0
aF0.0
aF0.0
aF0.0
aF0.0
aF0.0
aF0.0
aF0.0
aF0.0
aF0.0
aF0.0
aF0.0
aF0.0
aF0.0
aF0.0
aF0.0
aF0.0
aF0.0
aF0.0
aF0.0
aF0.0
aF0.0
aF0.0
aF0.0
aF0.0
aF0.0
aF0.0
aF0.0
aF0.0
aF0.0
aF0.0
aF0.0
aF0.0
aF0.0
aF0.0
aF0.0
aF0.0
aF0.0
aF0.0
aF0.0
aF0.0
aF0.0
aF0.0
aF0.0
aF0.0
aF0.0
aF0.0
aF0.0
aF0.0
aF0.0
aF0.0
aa(lp7
S'SVM'
p8
aF0.0
aF0.0
aF0.0
aF0.0
aF0.0
aF0.0
aF0.0
aF0.0
aF0.0
aF0.0
aF0.0
aF0.0
aF0.0
aF0.0
aF0.0
aF0.0
aF0.0
aF0.0
aF0.0
aF0.0
aF0.0
aF0.0
aF0.0
aF0.0
aF0.0
aF0.0
aF0.0
aF0.0
aF0.0
aF0.0
aF0.0
aF0.0
aF0.0
aF0.0
aF0.0
aF0.0
aF0.0
aF0.0
aF0.0
aF0.0
aF0.0
aF0.0
aF0.0
aF0.0
aF0.0
aF0.0
aF0.0
aF0.0
aF0.0
aF0.0
aF0.0
aF0.0
aF0.0
aF0.0
aF0.0
aF0.0
aF0.0
aF0.0
aF0.0
aF0.0
aF0.0
aF0.0
aF0.0
aF0.0
aF0.0
aF0.0
aF0.0
aF0.0
aF0.0
aF0.0
aF0.0
aF0.0
aF0.0
aF0.0
aF0.0
aF0.0
aF0.0
aF0.0
aF0.0
aF0.0
aF0.0
aF0.0
aF0.0
aF0.0
aF0.0
aF0.0
aF0.0
aF0.0
aF0.0
aF0.0
aF0.0
aF0.0
aF0.0
aF0.0
aF0.0
aF0.0
aF0.0
aF0.0
aF0.0
aF0.0
aa(lp9
S'NB'
p10
aF0.2
aF0.4
aF0.583
aF0.417
aF0.441
aF0.322
aF0.339
aF0.508
aF0.475
aF0.373
aF0.417
aF0.383
aF0.45
aF0.367
aF0.407
aF0.373
aF0.407
aF0.373
aF0.322
aF0.525
aF0.35
aF0.533
aF0.383
aF0.4
aF0.356
aF0.373
aF0.288
aF0.424
aF0.525
aF0.458
aF0.433
aF0.517
aF0.45
aF0.333
aF0.458
aF0.458
aF0.458
aF0.254
aF0.424
aF0.424
aF0.55
aF0.5
aF0.267
aF0.317
aF0.356
aF0.441
aF0.492
aF0.407
aF0.339
aF0.407
aF0.333
aF0.333
aF0.533
aF0.383
aF0.441
aF0.271
aF0.407
aF0.424
aF0.492
aF0.424
aF0.517
aF0.55
aF0.3
aF0.417
aF0.288
aF0.373
aF0.356
aF0.525
aF0.39
aF0.356
aF0.417
aF0.467
aF0.35
aF0.383
aF0.525
aF0.441
aF0.322
aF0.424
aF0.322
aF0.407
aF0.35
aF0.333
aF0.383
aF0.333
aF0.339
aF0.542
aF0.424
aF0.424
aF0.559
aF0.458
aF0.367
aF0.417
aF0.317
aF0.467
aF0.322
aF0.441
aF0.542
aF0.441
aF0.39
aF0.39
aa(lp11
S'RF'
p12
aF0.033
aF0.0
aF0.133
aF0.033
aF0.0
aF0.017
aF0.034
aF0.034
aF0.0
aF0.0
aF0.033
aF0.05
aF0.033
aF0.067
aF0.034
aF0.017
aF0.0
aF0.034
aF0.034
aF0.017
aF0.033
aF0.017
aF0.017
aF0.017
aF0.0
aF0.0
aF0.017
aF0.017
aF0.034
aF0.0
aF0.05
aF0.017
aF0.033
aF0.033
aF0.017
aF0.034
aF0.051
aF0.017
aF0.034
aF0.0
aF0.017
aF0.0
aF0.033
aF0.017
aF0.034
aF0.051
aF0.0
aF0.0
aF0.034
aF0.017
aF0.05
aF0.033
aF0.017
aF0.033
aF0.0
aF0.0
aF0.0
aF0.034
aF0.017
aF0.034
aF0.0
aF0.0
aF0.017
aF0.017
aF0.0
aF0.034
aF0.017
aF0.068
aF0.017
aF0.0
aF0.0
aF0.033
aF0.017
aF0.0
aF0.0
aF0.034
aF0.051
aF0.0
aF0.085
aF0.068
aF0.033
aF0.017
aF0.067
aF0.017
aF0.051
aF0.051
aF0.068
aF0.034
aF0.0
aF0.068
aF0.033
aF0.0
aF0.083
aF0.05
aF0.068
aF0.0
aF0.017
aF0.034
aF0.017
aF0.034
aa(lp13
S'LR'
p14
aF0.0
aF0.0
aF0.0
aF0.0
aF0.0
aF0.0
aF0.0
aF0.0
aF0.034
aF0.0
aF0.0
aF0.017
aF0.0
aF0.0
aF0.034
aF0.0
aF0.0
aF0.0
aF0.0
aF0.0
aF0.0
aF0.017
aF0.0
aF0.0
aF0.0
aF0.0
aF0.0
aF0.0
aF0.034
aF0.0
aF0.0
aF0.0
aF0.0
aF0.0
aF0.034
aF0.0
aF0.0
aF0.0
aF0.0
aF0.017
aF0.0
aF0.033
aF0.0
aF0.0
aF0.0
aF0.0
aF0.0
aF0.0
aF0.0
aF0.0
aF0.0
aF0.0
aF0.0
aF0.0
aF0.0
aF0.0
aF0.0
aF0.0
aF0.017
aF0.0
aF0.0
aF0.0
aF0.0
aF0.0
aF0.0
aF0.0
aF0.017
aF0.0
aF0.0
aF0.0
aF0.0
aF0.033
aF0.0
aF0.0
aF0.0
aF0.0
aF0.0
aF0.0
aF0.0
aF0.0
aF0.0
aF0.0
aF0.0
aF0.0
aF0.0
aF0.0
aF0.0
aF0.017
aF0.034
aF0.0
aF0.0
aF0.0
aF0.0
aF0.017
aF0.0
aF0.0
aF0.0
aF0.0
aF0.0
aF0.0
aa(lp15
S'DT'
p16
aF0.083
aF0.083
aF0.0
aF0.05
aF0.034
aF0.102
aF0.017
aF0.0
aF0.068
aF0.119
aF0.117
aF0.083
aF0.05
aF0.033
aF0.068
aF0.085
aF0.085
aF0.102
aF0.102
aF0.051
aF0.017
aF0.1
aF0.067
aF0.083
aF0.102
aF0.085
aF0.068
aF0.068
aF0.068
aF0.102
aF0.167
aF0.033
aF0.033
aF0.083
aF0.0
aF0.051
aF0.034
aF0.0
aF0.051
aF0.085
aF0.017
aF0.083
aF0.067
aF0.05
aF0.034
aF0.136
aF0.051
aF0.0
aF0.136
aF0.068
aF0.05
aF0.1
aF0.067
aF0.067
aF0.102
aF0.102
aF0.034
aF0.102
aF0.034
aF0.051
aF0.083
aF0.033
aF0.0
aF0.033
aF0.068
aF0.034
aF0.102
aF0.102
aF0.0
aF0.102
aF0.133
aF0.033
aF0.033
aF0.033
aF0.068
aF0.017
aF0.0
aF0.085
aF0.051
aF0.119
aF0.083
aF0.067
aF0.05
aF0.067
aF0.034
aF0.051
aF0.034
aF0.051
aF0.102
aF0.068
aF0.117
aF0.067
aF0.033
aF0.033
aF0.085
aF0.102
aF0.136
aF0.051
aF0.0
aF0.068
aasS'Recall'
p17
(lp18
(lp19
g6
aF0.0
aF0.0
aF0.0
aF0.0
aF0.0
aF0.0
aF0.0
aF0.0
aF0.0
aF0.0
aF0.0
aF0.0
aF0.0
aF0.0
aF0.0
aF0.0
aF0.0
aF0.0
aF0.0
aF0.0
aF0.0
aF0.0
aF0.0
aF0.0
aF0.0
aF0.0
aF0.0
aF0.0
aF0.0
aF0.0
aF0.0
aF0.0
aF0.0
aF0.0
aF0.0
aF0.0
aF0.0
aF0.0
aF0.0
aF0.0
aF0.0
aF0.0
aF0.0
aF0.0
aF0.0
aF0.0
aF0.0
aF0.0
aF0.0
aF0.0
aF0.0
aF0.0
aF0.0
aF0.0
aF0.0
aF0.0
aF0.0
aF0.0
aF0.0
aF0.0
aF0.0
aF0.0
aF0.0
aF0.0
aF0.0
aF0.0
aF0.0
aF0.0
aF0.0
aF0.0
aF0.0
aF0.0
aF0.0
aF0.0
aF0.0
aF0.0
aF0.0
aF0.0
aF0.0
aF0.0
aF0.0
aF0.0
aF0.0
aF0.0
aF0.0
aF0.0
aF0.0
aF0.0
aF0.0
aF0.0
aF0.0
aF0.0
aF0.0
aF0.0
aF0.0
aF0.0
aF0.0
aF0.0
aF0.0
aF0.0
aa(lp20
g8
aF0.0
aF0.0
aF0.0
aF0.0
aF0.0
aF0.0
aF0.0
aF0.0
aF0.0
aF0.0
aF0.0
aF0.0
aF0.0
aF0.0
aF0.0
aF0.0
aF0.0
aF0.0
aF0.0
aF0.0
aF0.0
aF0.0
aF0.0
aF0.0
aF0.0
aF0.0
aF0.0
aF0.0
aF0.0
aF0.0
aF0.0
aF0.0
aF0.0
aF0.0
aF0.0
aF0.0
aF0.0
aF0.0
aF0.0
aF0.0
aF0.0
aF0.0
aF0.0
aF0.0
aF0.0
aF0.0
aF0.0
aF0.0
aF0.0
aF0.0
aF0.0
aF0.0
aF0.0
aF0.0
aF0.0
aF0.0
aF0.0
aF0.0
aF0.0
aF0.0
aF0.0
aF0.0
aF0.0
aF0.0
aF0.0
aF0.0
aF0.0
aF0.0
aF0.0
aF0.0
aF0.0
aF0.0
aF0.0
aF0.0
aF0.0
aF0.0
aF0.0
aF0.0
aF0.0
aF0.0
aF0.0
aF0.0
aF0.0
aF0.0
aF0.0
aF0.0
aF0.0
aF0.0
aF0.0
aF0.0
aF0.0
aF0.0
aF0.0
aF0.0
aF0.0
aF0.0
aF0.0
aF0.0
aF0.0
aF0.0
aa(lp21
g10
aF0.286
aF0.857
aF1.0
aF0.429
aF0.857
aF0.429
aF0.833
aF0.5
aF1.0
aF0.5
aF0.857
aF0.429
aF0.714
aF0.714
aF0.429
aF0.714
aF0.333
aF0.667
aF1.0
aF0.833
aF0.429
aF1.0
aF0.429
aF0.571
aF0.286
aF1.0
aF0.5
aF0.667
aF1.0
aF0.833
aF0.714
aF0.714
aF0.714
aF0.571
aF0.714
aF0.571
aF0.5
aF0.667
aF0.833
aF1.0
aF0.714
aF0.571
aF0.714
aF0.857
aF0.286
aF0.857
aF1.0
aF0.5
aF0.667
aF0.5
aF0.571
aF0.429
aF0.571
aF0.571
aF0.857
aF0.714
aF0.667
aF0.667
aF0.833
aF0.5
aF0.857
aF0.857
aF0.286
aF0.571
aF0.571
aF1.0
aF0.5
aF0.667
aF0.5
aF0.833
aF0.857
aF0.571
aF0.714
aF0.143
aF0.571
aF0.571
aF0.833
aF1.0
aF0.667
aF0.833
aF0.714
aF0.429
aF0.429
aF0.571
aF0.429
aF1.0
aF0.833
aF0.667
aF1.0
aF0.667
aF0.857
aF0.857
aF0.429
aF0.714
aF0.429
aF0.714
aF0.833
aF0.667
aF0.5
aF0.833
aa(lp22
g12
aF0.286
aF0.143
aF0.143
aF0.143
aF0.286
aF0.143
aF0.333
aF0.5
aF0.0
aF0.0
aF0.143
aF0.286
aF0.143
aF0.286
aF0.143
aF0.286
aF0.0
aF0.333
aF0.5
aF0.333
aF0.286
aF0.714
aF0.143
aF0.429
aF0.0
aF0.0
aF0.167
aF0.333
aF0.667
aF0.0
aF0.143
aF0.143
aF0.286
aF0.429
aF0.286
aF0.429
aF0.5
aF0.167
aF0.167
aF0.0
aF0.286
aF0.0
aF0.143
aF0.286
aF0.429
aF0.286
aF0.0
aF0.167
aF0.333
aF0.333
aF0.143
aF0.143
aF0.571
aF0.143
aF0.286
aF0.0
aF0.0
aF0.167
aF0.5
aF0.333
aF0.0
aF0.0
aF0.286
aF0.571
aF0.0
aF0.143
aF0.333
aF0.333
aF0.333
aF0.0
aF0.0
aF0.143
aF0.143
aF0.0
aF0.0
aF0.143
aF0.167
aF0.0
aF0.167
aF0.167
aF0.143
aF0.143
aF0.286
aF0.143
aF0.286
aF0.571
aF0.167
aF0.5
aF0.0
aF0.167
aF0.143
aF0.0
aF0.429
aF0.429
aF0.286
aF0.0
aF0.333
aF0.167
aF0.5
aF0.167
aa(lp23
g14
aF0.0
aF0.0
aF0.0
aF0.0
aF0.0
aF0.0
aF0.0
aF0.167
aF0.167
aF0.0
aF0.0
aF0.143
aF0.0
aF0.0
aF0.143
aF0.0
aF0.0
aF0.0
aF0.0
aF0.0
aF0.0
aF0.143
aF0.0
aF0.0
aF0.0
aF0.0
aF0.0
aF0.0
aF0.167
aF0.0
aF0.0
aF0.0
aF0.0
aF0.0
aF0.143
aF0.0
aF0.0
aF0.167
aF0.0
aF0.167
aF0.0
aF0.143
aF0.0
aF0.143
aF0.0
aF0.0
aF0.0
aF0.0
aF0.0
aF0.0
aF0.0
aF0.0
aF0.0
aF0.0
aF0.0
aF0.0
aF0.167
aF0.0
aF0.167
aF0.0
aF0.0
aF0.0
aF0.0
aF0.0
aF0.0
aF0.0
aF0.167
aF0.0
aF0.0
aF0.0
aF0.0
aF0.143
aF0.0
aF0.0
aF0.0
aF0.0
aF0.0
aF0.0
aF0.167
aF0.167
aF0.0
aF0.0
aF0.0
aF0.0
aF0.143
aF0.0
aF0.0
aF0.167
aF0.167
aF0.0
aF0.0
aF0.0
aF0.0
aF0.143
aF0.0
aF0.0
aF0.0
aF0.0
aF0.0
aF0.167
aa(lp24
g16
aF0.429
aF0.286
aF0.0
aF0.571
aF0.286
aF0.429
aF0.333
aF0.0
aF0.333
aF0.5
aF0.286
aF0.286
aF0.286
aF0.286
aF0.429
aF0.571
aF0.5
aF0.5
aF0.5
aF0.333
aF0.571
aF0.429
aF0.571
aF0.286
aF0.429
aF0.571
aF0.5
aF0.333
aF0.5
aF0.167
aF0.429
aF0.286
aF0.429
aF0.429
aF0.0
aF0.571
aF0.5
aF0.0
aF0.5
aF0.333
aF0.857
aF0.143
aF0.286
aF0.429
aF0.143
aF0.286
aF0.667
aF0.0
aF0.333
aF0.5
aF0.571
aF0.286
aF0.857
aF0.429
aF0.857
aF0.429
aF0.333
aF0.5
aF0.167
aF0.167
aF0.571
aF0.286
aF0.0
aF0.143
aF0.571
aF0.429
aF0.5
aF0.167
aF0.333
aF0.333
aF0.143
aF0.429
aF0.143
aF0.286
aF0.429
aF0.286
aF0.0
aF0.333
aF0.5
aF0.667
aF0.429
aF0.286
aF0.857
aF0.286
aF0.429
aF0.286
aF0.667
aF0.167
aF0.5
aF0.167
aF0.571
aF0.286
aF0.571
aF0.429
aF0.143
aF0.286
aF0.667
aF0.167
aF0.0
aF0.167
aasS'Precision'
p25
(lp26
(lp27
g6
aF0.0
aF0.0
aF0.0
aF0.0
aF0.0
aF0.0
aF0.0
aF0.0
aF0.0
aF0.0
aF0.0
aF0.0
aF0.0
aF0.0
aF0.0
aF0.0
aF0.0
aF0.0
aF0.0
aF0.0
aF0.0
aF0.0
aF0.0
aF0.0
aF0.0
aF0.0
aF0.0
aF0.0
aF0.0
aF0.0
aF0.0
aF0.0
aF0.0
aF0.0
aF0.0
aF0.0
aF0.0
aF0.0
aF0.0
aF0.0
aF0.0
aF0.0
aF0.0
aF0.0
aF0.0
aF0.0
aF0.0
aF0.0
aF0.0
aF0.0
aF0.0
aF0.0
aF0.0
aF0.0
aF0.0
aF0.0
aF0.0
aF0.0
aF0.0
aF0.0
aF0.0
aF0.0
aF0.0
aF0.0
aF0.0
aF0.0
aF0.0
aF0.0
aF0.0
aF0.0
aF0.0
aF0.0
aF0.0
aF0.0
aF0.0
aF0.0
aF0.0
aF0.0
aF0.0
aF0.0
aF0.0
aF0.0
aF0.0
aF0.0
aF0.0
aF0.0
aF0.0
aF0.0
aF0.0
aF0.0
aF0.0
aF0.0
aF0.0
aF0.0
aF0.0
aF0.0
aF0.0
aF0.0
aF0.0
aF0.0
aa(lp28
g8
aF0.0
aF0.0
aF0.0
aF0.0
aF0.0
aF0.0
aF0.0
aF0.0
aF0.0
aF0.0
aF0.0
aF0.0
aF0.0
aF0.0
aF0.0
aF0.0
aF0.0
aF0.0
aF0.0
aF0.0
aF0.0
aF0.0
aF0.0
aF0.0
aF0.0
aF0.0
aF0.0
aF0.0
aF0.0
aF0.0
aF0.0
aF0.0
aF0.0
aF0.0
aF0.0
aF0.0
aF0.0
aF0.0
aF0.0
aF0.0
aF0.0
aF0.0
aF0.0
aF0.0
aF0.0
aF0.0
aF0.0
aF0.0
aF0.0
aF0.0
aF0.0
aF0.0
aF0.0
aF0.0
aF0.0
aF0.0
aF0.0
aF0.0
aF0.0
aF0.0
aF0.0
aF0.0
aF0.0
aF0.0
aF0.0
aF0.0
aF0.0
aF0.0
aF0.0
aF0.0
aF0.0
aF0.0
aF0.0
aF0.0
aF0.0
aF0.0
aF0.0
aF0.0
aF0.0
aF0.0
aF0.0
aF0.0
aF0.0
aF0.0
aF0.0
aF0.0
aF0.0
aF0.0
aF0.0
aF0.0
aF0.0
aF0.0
aF0.0
aF0.0
aF0.0
aF0.0
aF0.0
aF0.0
aF0.0
aF0.0
aa(lp29
g10
aF0.143
aF0.2
aF0.167
aF0.107
aF0.188
aF0.136
aF0.2
aF0.091
aF0.176
aF0.12
aF0.194
aF0.115
aF0.156
aF0.185
aF0.111
aF0.185
aF0.077
aF0.154
aF0.24
aF0.139
aF0.125
aF0.179
aF0.115
aF0.143
aF0.087
aF0.241
aF0.15
aF0.138
aF0.162
aF0.156
aF0.161
aF0.139
aF0.156
aF0.167
aF0.156
aF0.129
aF0.1
aF0.211
aF0.167
aF0.194
aF0.132
aF0.118
aF0.238
aF0.24
aF0.087
aF0.188
aF0.171
aF0.111
aF0.167
aF0.111
aF0.167
aF0.13
aF0.111
aF0.148
aF0.188
aF0.238
aF0.143
aF0.138
aF0.147
aF0.107
aF0.162
aF0.154
aF0.1
aF0.138
aF0.19
aF0.241
aF0.125
aF0.114
aF0.115
aF0.192
aF0.194
aF0.125
aF0.192
aF0.042
aF0.114
aF0.133
aF0.208
aF0.194
aF0.174
aF0.172
aF0.192
aF0.13
aF0.115
aF0.167
aF0.13
aF0.179
aF0.167
aF0.138
aF0.154
aF0.129
aF0.214
aF0.194
aF0.136
aF0.152
aF0.136
aF0.161
aF0.135
aF0.133
aF0.115
aF0.179
aa(lp30
g12
aF0.5
aF1.0
aF0.111
aF0.333
aF1.0
aF0.5
aF0.5
aF0.6
aF0.0
aF0.0
aF0.333
aF0.4
aF0.333
aF0.333
aF0.333
aF0.667
aF0.0
aF0.5
aF0.6
aF0.667
aF0.5
aF0.833
aF0.5
aF0.75
aF0.0
aF0.0
aF0.5
aF0.667
aF0.667
aF0.0
aF0.25
aF0.5
aF0.5
aF0.6
aF0.667
aF0.6
aF0.5
aF0.5
aF0.333
aF0.0
aF0.667
aF0.0
aF0.333
aF0.667
aF0.6
aF0.4
aF0.0
aF1.0
aF0.5
aF0.667
aF0.25
aF0.333
aF0.8
aF0.333
aF1.0
aF0.0
aF0.0
aF0.333
aF0.75
aF0.5
aF0.0
aF0.0
aF0.667
aF0.8
aF0.0
aF0.333
aF0.667
aF0.333
aF0.667
aF0.0
aF0.0
aF0.333
aF0.5
aF0.0
aF0.0
aF0.333
aF0.25
aF0.0
aF0.167
aF0.2
aF0.333
aF0.5
aF0.333
aF0.5
aF0.4
aF0.571
aF0.2
aF0.6
aF0.0
aF0.2
aF0.333
aF0.0
aF0.375
aF0.5
aF0.333
aF0.0
aF0.667
aF0.333
aF0.75
aF0.333
aa(lp31
g14
aF0.0
aF0.0
aF0.0
aF0.0
aF0.0
aF0.0
aF0.0
aF1.0
aF0.333
aF0.0
aF0.0
aF0.5
aF0.0
aF0.0
aF0.333
aF0.0
aF0.0
aF0.0
aF0.0
aF0.0
aF0.0
aF0.5
aF0.0
aF0.0
aF0.0
aF0.0
aF0.0
aF0.0
aF0.333
aF0.0
aF0.0
aF0.0
aF0.0
aF0.0
aF0.333
aF0.0
aF0.0
aF1.0
aF0.0
aF0.5
aF0.0
aF0.333
aF0.0
aF1.0
aF0.0
aF0.0
aF0.0
aF0.0
aF0.0
aF0.0
aF0.0
aF0.0
aF0.0
aF0.0
aF0.0
aF0.0
aF1.0
aF0.0
aF0.5
aF0.0
aF0.0
aF0.0
aF0.0
aF0.0
aF0.0
aF0.0
aF0.5
aF0.0
aF0.0
aF0.0
aF0.0
aF0.333
aF0.0
aF0.0
aF0.0
aF0.0
aF0.0
aF0.0
aF1.0
aF1.0
aF0.0
aF0.0
aF0.0
aF0.0
aF1.0
aF0.0
aF0.0
aF0.5
aF0.333
aF0.0
aF0.0
aF0.0
aF0.0
aF0.5
aF0.0
aF0.0
aF0.0
aF0.0
aF0.0
aF1.0
aa(lp32
g16
aF0.375
aF0.286
aF0.0
aF0.571
aF0.5
aF0.333
aF0.667
aF0.0
aF0.333
aF0.3
aF0.222
aF0.286
aF0.4
aF0.5
aF0.429
aF0.444
aF0.375
aF0.333
aF0.333
aF0.4
aF0.8
aF0.333
aF0.5
aF0.286
aF0.333
aF0.444
aF0.429
aF0.333
aF0.429
aF0.143
aF0.231
aF0.5
aF0.6
aF0.375
aF0.0
aF0.571
aF0.6
aF0.0
aF0.5
aF0.286
aF0.857
aF0.167
aF0.333
aF0.5
aF0.333
aF0.2
aF0.571
aF0.0
aF0.2
aF0.429
aF0.571
aF0.25
aF0.6
aF0.429
aF0.5
aF0.333
aF0.5
aF0.333
aF0.333
aF0.25
aF0.444
aF0.5
aF0.0
aF0.333
aF0.5
aF0.6
aF0.333
aF0.143
aF1.0
aF0.25
aF0.111
aF0.6
aF0.333
aF0.5
aF0.429
aF0.667
aF0.0
aF0.286
aF0.5
aF0.364
aF0.375
aF0.333
aF0.667
aF0.333
aF0.6
aF0.4
aF0.667
aF0.25
aF0.333
aF0.2
aF0.364
aF0.333
aF0.667
aF0.6
aF0.167
aF0.25
aF0.333
aF0.25
aF0.0
aF0.2
aasS'F_score'
p33
(lp34
(lp35
g6
aF0.0
aF0.0
aF0.0
aF0.0
aF0.0
aF0.0
aF0.0
aF0.0
aF0.0
aF0.0
aF0.0
aF0.0
aF0.0
aF0.0
aF0.0
aF0.0
aF0.0
aF0.0
aF0.0
aF0.0
aF0.0
aF0.0
aF0.0
aF0.0
aF0.0
aF0.0
aF0.0
aF0.0
aF0.0
aF0.0
aF0.0
aF0.0
aF0.0
aF0.0
aF0.0
aF0.0
aF0.0
aF0.0
aF0.0
aF0.0
aF0.0
aF0.0
aF0.0
aF0.0
aF0.0
aF0.0
aF0.0
aF0.0
aF0.0
aF0.0
aF0.0
aF0.0
aF0.0
aF0.0
aF0.0
aF0.0
aF0.0
aF0.0
aF0.0
aF0.0
aF0.0
aF0.0
aF0.0
aF0.0
aF0.0
aF0.0
aF0.0
aF0.0
aF0.0
aF0.0
aF0.0
aF0.0
aF0.0
aF0.0
aF0.0
aF0.0
aF0.0
aF0.0
aF0.0
aF0.0
aF0.0
aF0.0
aF0.0
aF0.0
aF0.0
aF0.0
aF0.0
aF0.0
aF0.0
aF0.0
aF0.0
aF0.0
aF0.0
aF0.0
aF0.0
aF0.0
aF0.0
aF0.0
aF0.0
aF0.0
aa(lp36
g8
aF0.0
aF0.0
aF0.0
aF0.0
aF0.0
aF0.0
aF0.0
aF0.0
aF0.0
aF0.0
aF0.0
aF0.0
aF0.0
aF0.0
aF0.0
aF0.0
aF0.0
aF0.0
aF0.0
aF0.0
aF0.0
aF0.0
aF0.0
aF0.0
aF0.0
aF0.0
aF0.0
aF0.0
aF0.0
aF0.0
aF0.0
aF0.0
aF0.0
aF0.0
aF0.0
aF0.0
aF0.0
aF0.0
aF0.0
aF0.0
aF0.0
aF0.0
aF0.0
aF0.0
aF0.0
aF0.0
aF0.0
aF0.0
aF0.0
aF0.0
aF0.0
aF0.0
aF0.0
aF0.0
aF0.0
aF0.0
aF0.0
aF0.0
aF0.0
aF0.0
aF0.0
aF0.0
aF0.0
aF0.0
aF0.0
aF0.0
aF0.0
aF0.0
aF0.0
aF0.0
aF0.0
aF0.0
aF0.0
aF0.0
aF0.0
aF0.0
aF0.0
aF0.0
aF0.0
aF0.0
aF0.0
aF0.0
aF0.0
aF0.0
aF0.0
aF0.0
aF0.0
aF0.0
aF0.0
aF0.0
aF0.0
aF0.0
aF0.0
aF0.0
aF0.0
aF0.0
aF0.0
aF0.0
aF0.0
aF0.0
aa(lp37
g10
aF0.19
aF0.324
aF0.286
aF0.171
aF0.308
aF0.207
aF0.323
aF0.154
aF0.3
aF0.194
aF0.316
aF0.182
aF0.256
aF0.294
aF0.176
aF0.294
aF0.125
aF0.25
aF0.387
aF0.238
aF0.194
aF0.304
aF0.182
aF0.229
aF0.133
aF0.389
aF0.231
aF0.229
aF0.279
aF0.263
aF0.263
aF0.233
aF0.256
aF0.258
aF0.256
aF0.211
aF0.167
aF0.32
aF0.278
aF0.324
aF0.222
aF0.195
aF0.357
aF0.375
aF0.133
aF0.308
aF0.293
aF0.182
aF0.267
aF0.182
aF0.258
aF0.2
aF0.186
aF0.235
aF0.308
aF0.357
aF0.235
aF0.229
aF0.25
aF0.176
aF0.273
aF0.261
aF0.148
aF0.222
aF0.286
aF0.389
aF0.2
aF0.195
aF0.188
aF0.313
aF0.316
aF0.205
aF0.303
aF0.065
aF0.19
aF0.216
aF0.333
aF0.324
aF0.276
aF0.286
aF0.303
aF0.2
aF0.182
aF0.258
aF0.2
aF0.304
aF0.278
aF0.229
aF0.267
aF0.216
aF0.343
aF0.316
aF0.207
aF0.25
aF0.207
aF0.263
aF0.233
aF0.222
aF0.188
aF0.294
aa(lp38
g12
aF0.364
aF0.25
aF0.125
aF0.2
aF0.444
aF0.222
aF0.4
aF0.545
aF0.0
aF0.0
aF0.2
aF0.333
aF0.2
aF0.308
aF0.2
aF0.4
aF0.0
aF0.4
aF0.545
aF0.444
aF0.364
aF0.769
aF0.222
aF0.545
aF0.0
aF0.0
aF0.25
aF0.444
aF0.667
aF0.0
aF0.182
aF0.222
aF0.364
aF0.5
aF0.4
aF0.5
aF0.5
aF0.25
aF0.222
aF0.0
aF0.4
aF0.0
aF0.2
aF0.4
aF0.5
aF0.333
aF0.0
aF0.286
aF0.4
aF0.444
aF0.182
aF0.2
aF0.667
aF0.2
aF0.444
aF0.0
aF0.0
aF0.222
aF0.6
aF0.4
aF0.0
aF0.0
aF0.4
aF0.667
aF0.0
aF0.2
aF0.444
aF0.333
aF0.444
aF0.0
aF0.0
aF0.2
aF0.222
aF0.0
aF0.0
aF0.2
aF0.2
aF0.0
aF0.167
aF0.182
aF0.2
aF0.222
aF0.308
aF0.222
aF0.333
aF0.571
aF0.182
aF0.545
aF0.0
aF0.182
aF0.2
aF0.0
aF0.4
aF0.462
aF0.308
aF0.0
aF0.444
aF0.222
aF0.6
aF0.222
aa(lp39
g14
aF0.0
aF0.0
aF0.0
aF0.0
aF0.0
aF0.0
aF0.0
aF0.286
aF0.222
aF0.0
aF0.0
aF0.222
aF0.0
aF0.0
aF0.2
aF0.0
aF0.0
aF0.0
aF0.0
aF0.0
aF0.0
aF0.222
aF0.0
aF0.0
aF0.0
aF0.0
aF0.0
aF0.0
aF0.222
aF0.0
aF0.0
aF0.0
aF0.0
aF0.0
aF0.2
aF0.0
aF0.0
aF0.286
aF0.0
aF0.25
aF0.0
aF0.2
aF0.0
aF0.25
aF0.0
aF0.0
aF0.0
aF0.0
aF0.0
aF0.0
aF0.0
aF0.0
aF0.0
aF0.0
aF0.0
aF0.0
aF0.286
aF0.0
aF0.25
aF0.0
aF0.0
aF0.0
aF0.0
aF0.0
aF0.0
aF0.0
aF0.25
aF0.0
aF0.0
aF0.0
aF0.0
aF0.2
aF0.0
aF0.0
aF0.0
aF0.0
aF0.0
aF0.0
aF0.286
aF0.286
aF0.0
aF0.0
aF0.0
aF0.0
aF0.25
aF0.0
aF0.0
aF0.25
aF0.222
aF0.0
aF0.0
aF0.0
aF0.0
aF0.222
aF0.0
aF0.0
aF0.0
aF0.0
aF0.0
aF0.286
aa(lp40
g16
aF0.4
aF0.286
aF0.0
aF0.571
aF0.364
aF0.375
aF0.444
aF0.0
aF0.333
aF0.375
aF0.25
aF0.286
aF0.333
aF0.364
aF0.429
aF0.5
aF0.429
aF0.4
aF0.4
aF0.364
aF0.667
aF0.375
aF0.533
aF0.286
aF0.375
aF0.5
aF0.462
aF0.333
aF0.462
aF0.154
aF0.3
aF0.364
aF0.5
aF0.4
aF0.0
aF0.571
aF0.545
aF0.0
aF0.5
aF0.308
aF0.857
aF0.154
aF0.308
aF0.462
aF0.2
aF0.235
aF0.615
aF0.0
aF0.25
aF0.462
aF0.571
aF0.267
aF0.706
aF0.429
aF0.632
aF0.375
aF0.4
aF0.4
aF0.222
aF0.2
aF0.5
aF0.364
aF0.0
aF0.2
aF0.533
aF0.5
aF0.4
aF0.154
aF0.5
aF0.286
aF0.125
aF0.5
aF0.2
aF0.364
aF0.429
aF0.4
aF0.0
aF0.308
aF0.5
aF0.471
aF0.4
aF0.308
aF0.75
aF0.308
aF0.5
aF0.333
aF0.667
aF0.2
aF0.4
aF0.182
aF0.444
aF0.308
aF0.615
aF0.5
aF0.154
aF0.267
aF0.444
aF0.2
aF0.0
aF0.182
aasS'Accuracy'
p41
(lp42
(lp43
g6
aF0.0
aF0.0
aF0.0
aF0.0
aF0.0
aF0.0
aF0.0
aF0.0
aF0.0
aF0.0
aF0.0
aF0.0
aF0.0
aF0.0
aF0.0
aF0.0
aF0.0
aF0.0
aF0.0
aF0.0
aF0.0
aF0.0
aF0.0
aF0.0
aF0.0
aF0.0
aF0.0
aF0.0
aF0.0
aF0.0
aF0.0
aF0.0
aF0.0
aF0.0
aF0.0
aF0.0
aF0.0
aF0.0
aF0.0
aF0.0
aF0.0
aF0.0
aF0.0
aF0.0
aF0.0
aF0.0
aF0.0
aF0.0
aF0.0
aF0.0
aF0.0
aF0.0
aF0.0
aF0.0
aF0.0
aF0.0
aF0.0
aF0.0
aF0.0
aF0.0
aF0.0
aF0.0
aF0.0
aF0.0
aF0.0
aF0.0
aF0.0
aF0.0
aF0.0
aF0.0
aF0.0
aF0.0
aF0.0
aF0.0
aF0.0
aF0.0
aF0.0
aF0.0
aF0.0
aF0.0
aF0.0
aF0.0
aF0.0
aF0.0
aF0.0
aF0.0
aF0.0
aF0.0
aF0.0
aF0.0
aF0.0
aF0.0
aF0.0
aF0.0
aF0.0
aF0.0
aF0.0
aF0.0
aF0.0
aF0.0
aa(lp44
g8
aF0.0
aF0.0
aF0.0
aF0.0
aF0.0
aF0.0
aF0.0
aF0.0
aF0.0
aF0.0
aF0.0
aF0.0
aF0.0
aF0.0
aF0.0
aF0.0
aF0.0
aF0.0
aF0.0
aF0.0
aF0.0
aF0.0
aF0.0
aF0.0
aF0.0
aF0.0
aF0.0
aF0.0
aF0.0
aF0.0
aF0.0
aF0.0
aF0.0
aF0.0
aF0.0
aF0.0
aF0.0
aF0.0
aF0.0
aF0.0
aF0.0
aF0.0
aF0.0
aF0.0
aF0.0
aF0.0
aF0.0
aF0.0
aF0.0
aF0.0
aF0.0
aF0.0
aF0.0
aF0.0
aF0.0
aF0.0
aF0.0
aF0.0
aF0.0
aF0.0
aF0.0
aF0.0
aF0.0
aF0.0
aF0.0
aF0.0
aF0.0
aF0.0
aF0.0
aF0.0
aF0.0
aF0.0
aF0.0
aF0.0
aF0.0
aF0.0
aF0.0
aF0.0
aF0.0
aF0.0
aF0.0
aF0.0
aF0.0
aF0.0
aF0.0
aF0.0
aF0.0
aF0.0
aF0.0
aF0.0
aF0.0
aF0.0
aF0.0
aF0.0
aF0.0
aF0.0
aF0.0
aF0.0
aF0.0
aF0.0
aa(lp45
g10
aF0.746
aF0.627
aF0.478
aF0.567
aF0.591
aF0.652
aF0.677
aF0.492
aF0.569
aF0.615
aF0.612
aF0.597
aF0.567
aF0.642
aF0.576
aF0.636
aF0.569
aF0.631
aF0.708
aF0.508
aF0.627
aF0.522
aF0.597
aF0.597
aF0.606
aF0.667
aF0.692
aF0.585
aF0.523
aF0.569
aF0.582
aF0.507
aF0.567
aF0.657
aF0.561
aF0.545
aF0.538
aF0.738
aF0.6
aF0.615
aF0.478
aF0.507
aF0.731
aF0.701
aF0.606
aF0.591
aF0.554
aF0.585
aF0.662
aF0.585
aF0.657
aF0.642
aF0.478
aF0.612
aF0.591
aF0.727
aF0.6
aF0.585
aF0.538
aF0.569
aF0.522
aF0.493
aF0.657
aF0.582
aF0.697
aF0.667
aF0.631
aF0.492
aF0.6
aF0.662
aF0.612
aF0.537
aF0.657
aF0.567
aF0.485
aF0.561
aF0.692
aF0.615
aF0.677
aF0.615
aF0.657
aF0.642
aF0.597
aF0.657
aF0.636
aF0.515
aF0.6
aF0.585
aF0.492
aF0.554
aF0.657
aF0.612
aF0.657
aF0.552
aF0.652
aF0.576
aF0.492
aF0.569
aF0.6
aF0.631
aa(lp46
g12
aF0.896
aF0.91
aF0.791
aF0.881
aF0.924
aF0.894
aF0.908
aF0.923
aF0.0
aF0.0
aF0.881
aF0.881
aF0.881
aF0.866
aF0.879
aF0.909
aF0.0
aF0.908
aF0.923
aF0.923
aF0.896
aF0.955
aF0.896
aF0.925
aF0.0
aF0.0
aF0.908
aF0.923
aF0.938
aF0.0
aF0.866
aF0.896
aF0.896
aF0.91
aF0.909
aF0.909
aF0.908
aF0.908
aF0.892
aF0.0
aF0.91
aF0.0
aF0.881
aF0.91
aF0.909
aF0.879
aF0.0
aF0.923
aF0.908
aF0.923
aF0.866
aF0.881
aF0.94
aF0.881
aF0.924
aF0.0
aF0.0
aF0.892
aF0.938
aF0.908
aF0.0
aF0.0
aF0.91
aF0.94
aF0.0
aF0.879
aF0.923
aF0.877
aF0.923
aF0.0
aF0.0
aF0.881
aF0.896
aF0.0
aF0.0
aF0.879
aF0.877
aF0.0
aF0.846
aF0.862
aF0.881
aF0.896
aF0.866
aF0.896
aF0.879
aF0.909
aF0.862
aF0.923
aF0.0
aF0.862
aF0.881
aF0.0
aF0.866
aF0.896
aF0.864
aF0.0
aF0.923
aF0.892
aF0.938
aF0.892
aa(lp47
g14
aF0.0
aF0.0
aF0.0
aF0.0
aF0.0
aF0.0
aF0.0
aF0.923
aF0.892
aF0.0
aF0.0
aF0.896
aF0.0
aF0.0
aF0.879
aF0.0
aF0.0
aF0.0
aF0.0
aF0.0
aF0.0
aF0.896
aF0.0
aF0.0
aF0.0
aF0.0
aF0.0
aF0.0
aF0.892
aF0.0
aF0.0
aF0.0
aF0.0
aF0.0
aF0.879
aF0.0
aF0.0
aF0.923
aF0.0
aF0.908
aF0.0
aF0.881
aF0.0
aF0.91
aF0.0
aF0.0
aF0.0
aF0.0
aF0.0
aF0.0
aF0.0
aF0.0
aF0.0
aF0.0
aF0.0
aF0.0
aF0.923
aF0.0
aF0.908
aF0.0
aF0.0
aF0.0
aF0.0
aF0.0
aF0.0
aF0.0
aF0.908
aF0.0
aF0.0
aF0.0
aF0.0
aF0.881
aF0.0
aF0.0
aF0.0
aF0.0
aF0.0
aF0.0
aF0.923
aF0.923
aF0.0
aF0.0
aF0.0
aF0.0
aF0.909
aF0.0
aF0.0
aF0.908
aF0.892
aF0.0
aF0.0
aF0.0
aF0.0
aF0.896
aF0.0
aF0.0
aF0.0
aF0.0
aF0.0
aF0.923
aa(lp48
g16
aF0.866
aF0.851
aF0.0
aF0.91
aF0.894
aF0.848
aF0.923
aF0.0
aF0.877
aF0.846
aF0.821
aF0.851
aF0.881
aF0.896
aF0.879
aF0.879
aF0.877
aF0.862
aF0.862
aF0.892
aF0.94
aF0.851
aF0.896
aF0.851
aF0.848
aF0.879
aF0.892
aF0.877
aF0.892
aF0.831
aF0.791
aF0.896
aF0.91
aF0.866
aF0.0
aF0.909
aF0.923
aF0.0
aF0.908
aF0.862
aF0.97
aF0.836
aF0.866
aF0.896
aF0.879
aF0.803
aF0.923
aF0.0
aF0.815
aF0.892
aF0.91
aF0.836
aF0.925
aF0.881
aF0.894
aF0.848
aF0.908
aF0.862
aF0.892
aF0.877
aF0.881
aF0.896
aF0.0
aF0.881
aF0.894
aF0.909
aF0.862
aF0.831
aF0.938
aF0.846
aF0.791
aF0.91
aF0.881
aF0.896
aF0.879
aF0.909
aF0.0
aF0.862
aF0.908
aF0.862
aF0.866
aF0.866
aF0.94
aF0.866
aF0.909
aF0.879
aF0.938
aF0.877
aF0.862
aF0.862
aF0.851
aF0.866
aF0.925
aF0.91
aF0.833
aF0.833
aF0.846
aF0.877
aF0.0
aF0.862
aass.