(dp0
S'ivy'
p1
(dp2
S'AUC'
p3
(lp4
(lp5
S'KNN'
p6
aF0.254
aF0.175
aF0.242
aF0.242
aF0.21
aF0.254
aF0.254
aF0.242
aF0.29
aF0.21
aF0.254
aF0.27
aF0.21
aF0.226
aF0.226
aa(lp7
S'SVM'
p8
aF0.19
aF0.175
aF0.177
aF0.177
aF0.177
aF0.19
aF0.238
aF0.048
aF0.258
aF0.097
aF0.222
aF0.222
aF0.226
aF0.129
aF0.226
aa(lp9
S'NB'
p10
aF0.286
aF0.159
aF0.097
aF0.065
aF0.177
aF0.143
aF0.238
aF0.258
aF0.113
aF0.097
aF0.079
aF0.19
aF0.065
aF0.177
aF0.177
aa(lp11
S'RF'
p12
aF0.143
aF0.079
aF0.097
aF0.145
aF0.21
aF0.111
aF0.127
aF0.048
aF0.113
aF0.194
aF0.19
aF0.111
aF0.097
aF0.0
aF0.113
aa(lp13
S'LR'
p14
aF0.19
aF0.127
aF0.129
aF0.194
aF0.226
aF0.19
aF0.175
aF0.161
aF0.177
aF0.226
aF0.159
aF0.302
aF0.177
aF0.177
aF0.274
aa(lp15
S'DT'
p16
aF0.111
aF0.0
aF0.145
aF0.161
aF0.226
aF0.159
aF0.206
aF0.226
aF0.0
aF0.129
aF0.111
aF0.175
aF0.194
aF0.113
aF0.21
aasS'False_alarm'
p17
(lp18
(lp19
g6
aF0.254
aF0.175
aF0.242
aF0.242
aF0.21
aF0.254
aF0.254
aF0.242
aF0.29
aF0.21
aF0.254
aF0.27
aF0.21
aF0.226
aF0.226
aa(lp20
g8
aF0.19
aF0.175
aF0.177
aF0.177
aF0.177
aF0.19
aF0.238
aF0.048
aF0.258
aF0.097
aF0.222
aF0.222
aF0.226
aF0.129
aF0.226
aa(lp21
g10
aF0.286
aF0.159
aF0.097
aF0.065
aF0.177
aF0.143
aF0.238
aF0.258
aF0.113
aF0.097
aF0.079
aF0.19
aF0.065
aF0.177
aF0.177
aa(lp22
g12
aF0.143
aF0.079
aF0.097
aF0.145
aF0.21
aF0.111
aF0.127
aF0.048
aF0.113
aF0.194
aF0.19
aF0.111
aF0.097
aF0.0
aF0.113
aa(lp23
g14
aF0.19
aF0.127
aF0.129
aF0.194
aF0.226
aF0.19
aF0.175
aF0.161
aF0.177
aF0.226
aF0.159
aF0.302
aF0.177
aF0.177
aF0.274
aa(lp24
g16
aF0.111
aF0.0
aF0.145
aF0.161
aF0.226
aF0.159
aF0.206
aF0.226
aF0.0
aF0.129
aF0.111
aF0.175
aF0.194
aF0.113
aF0.21
aasS'Recall'
p25
(lp26
(lp27
g6
aF0.875
aF0.625
aF0.75
aF0.875
aF0.5
aF1.0
aF1.0
aF0.625
aF0.5
aF0.75
aF1.0
aF0.625
aF0.875
aF0.75
aF0.5
aa(lp28
g8
aF0.375
aF0.625
aF0.5
aF0.5
aF0.625
aF0.5
aF0.625
aF0.5
aF0.625
aF0.625
aF0.5
aF0.625
aF0.75
aF0.75
aF0.375
aa(lp29
g10
aF0.625
aF0.5
aF0.375
aF0.5
aF0.25
aF0.375
aF0.5
aF0.125
aF0.5
aF0.875
aF0.375
aF0.5
aF0.375
aF0.625
aF0.75
aa(lp30
g12
aF0.25
aF0.375
aF0.25
aF0.625
aF0.625
aF0.375
aF0.5
aF0.25
aF0.25
aF0.625
aF0.75
aF0.125
aF0.5
aF0.0
aF0.375
aa(lp31
g14
aF0.75
aF0.375
aF0.875
aF0.875
aF0.25
aF0.75
aF0.625
aF0.375
aF0.75
aF0.375
aF0.25
aF0.875
aF0.625
aF0.625
aF0.625
aa(lp32
g16
aF0.375
aF0.0
aF0.125
aF0.5
aF0.5
aF0.375
aF0.5
aF0.5
aF0.0
aF0.25
aF0.5
aF0.75
aF0.5
aF0.375
aF0.625
aasS'Precision'
p33
(lp34
(lp35
g6
aF0.304
aF0.313
aF0.286
aF0.318
aF0.235
aF0.333
aF0.333
aF0.25
aF0.182
aF0.316
aF0.333
aF0.227
aF0.35
aF0.3
aF0.222
aa(lp36
g8
aF0.2
aF0.313
aF0.267
aF0.267
aF0.313
aF0.25
aF0.25
aF0.571
aF0.238
aF0.455
aF0.222
aF0.263
aF0.3
aF0.429
aF0.176
aa(lp37
g10
aF0.217
aF0.286
aF0.333
aF0.5
aF0.154
aF0.25
aF0.211
aF0.059
aF0.364
aF0.538
aF0.375
aF0.25
aF0.429
aF0.313
aF0.353
aa(lp38
g12
aF0.182
aF0.375
aF0.25
aF0.357
aF0.278
aF0.3
aF0.333
aF0.4
aF0.222
aF0.294
aF0.333
aF0.125
aF0.4
aF0.0
aF0.3
aa(lp39
g14
aF0.333
aF0.273
aF0.467
aF0.368
aF0.125
aF0.333
aF0.313
aF0.231
aF0.353
aF0.176
aF0.167
aF0.269
aF0.313
aF0.313
aF0.227
aa(lp40
g16
aF0.3
aF0.0
aF0.1
aF0.286
aF0.222
aF0.231
aF0.235
aF0.222
aF0.0
aF0.2
aF0.364
aF0.353
aF0.25
aF0.3
aF0.278
aasS'F_score'
p41
(lp42
(lp43
g6
aF0.452
aF0.417
aF0.414
aF0.467
aF0.32
aF0.5
aF0.5
aF0.357
aF0.267
aF0.444
aF0.5
aF0.333
aF0.5
aF0.429
aF0.308
aa(lp44
g8
aF0.261
aF0.417
aF0.348
aF0.348
aF0.417
aF0.333
aF0.357
aF0.533
aF0.345
aF0.526
aF0.308
aF0.37
aF0.429
aF0.545
aF0.24
aa(lp45
g10
aF0.323
aF0.364
aF0.353
aF0.5
aF0.19
aF0.3
aF0.296
aF0.08
aF0.421
aF0.667
aF0.375
aF0.333
aF0.4
aF0.417
aF0.48
aa(lp46
g12
aF0.211
aF0.375
aF0.25
aF0.455
aF0.385
aF0.333
aF0.4
aF0.308
aF0.235
aF0.4
aF0.462
aF0.125
aF0.444
aF0.0
aF0.333
aa(lp47
g14
aF0.462
aF0.316
aF0.609
aF0.519
aF0.167
aF0.462
aF0.417
aF0.286
aF0.48
aF0.24
aF0.2
aF0.412
aF0.417
aF0.417
aF0.333
aa(lp48
g16
aF0.333
aF0.0
aF0.111
aF0.364
aF0.308
aF0.286
aF0.32
aF0.308
aF0.0
aF0.222
aF0.421
aF0.48
aF0.333
aF0.333
aF0.385
aasS'Accuracy'
p49
(lp50
(lp51
g6
aF0.761
aF0.803
aF0.757
aF0.771
aF0.757
aF0.775
aF0.775
aF0.743
aF0.686
aF0.786
aF0.775
aF0.718
aF0.8
aF0.771
aF0.743
aa(lp52
g8
aF0.761
aF0.803
aF0.786
aF0.786
aF0.8
aF0.775
aF0.746
aF0.9
aF0.729
aF0.871
aF0.746
aF0.761
aF0.771
aF0.857
aF0.729
aa(lp53
g10
aF0.704
aF0.803
aF0.843
aF0.886
aF0.757
aF0.803
aF0.732
aF0.671
aF0.843
aF0.9
aF0.859
aF0.775
aF0.871
aF0.8
aF0.814
aa(lp54
g12
aF0.789
aF0.859
aF0.829
aF0.829
aF0.771
aF0.831
aF0.831
aF0.871
aF0.814
aF0.786
aF0.803
aF0.803
aF0.857
aF0.0
aF0.829
aa(lp55
g14
aF0.803
aF0.817
aF0.871
aF0.814
aF0.714
aF0.803
aF0.803
aF0.786
aF0.814
aF0.729
aF0.775
aF0.718
aF0.8
aF0.8
aF0.714
aa(lp56
g16
aF0.831
aF0.0
aF0.771
aF0.8
aF0.743
aF0.789
aF0.761
aF0.743
aF0.0
aF0.8
aF0.845
aF0.817
aF0.771
aF0.829
aF0.771
aass.