(dp0
S'poi'
p1
(dp2
S'AUC'
p3
(lp4
(lp5
S'KNN'
p6
aF0.242
aF0.344
aF0.281
aF0.188
aF0.281
aF0.333
aF0.25
aF0.406
aF0.188
aF0.188
aF0.394
aF0.344
aF0.313
aF0.188
aF0.313
aa(lp7
S'SVM'
p8
aF0.121
aF0.375
aF0.25
aF0.313
aF0.281
aF0.273
aF0.406
aF0.156
aF0.281
aF0.188
aF0.182
aF0.219
aF0.281
aF0.25
aF0.281
aa(lp9
S'NB'
p10
aF0.121
aF0.063
aF0.156
aF0.125
aF0.125
aF0.091
aF0.031
aF0.156
aF0.156
aF0.125
aF0.061
aF0.094
aF0.125
aF0.125
aF0.063
aa(lp11
S'RF'
p12
aF0.242
aF0.313
aF0.25
aF0.25
aF0.094
aF0.212
aF0.188
aF0.281
aF0.188
aF0.219
aF0.273
aF0.281
aF0.281
aF0.125
aF0.125
aa(lp13
S'LR'
p14
aF0.485
aF0.25
aF0.281
aF0.438
aF0.313
aF0.333
aF0.313
aF0.25
aF0.25
aF0.406
aF0.333
aF0.344
aF0.406
aF0.313
aF0.344
aa(lp15
S'DT'
p16
aF0.273
aF0.344
aF0.313
aF0.406
aF0.281
aF0.273
aF0.313
aF0.313
aF0.375
aF0.25
aF0.273
aF0.406
aF0.375
aF0.375
aF0.375
aasS'False_alarm'
p17
(lp18
(lp19
g6
aF0.242
aF0.344
aF0.281
aF0.188
aF0.281
aF0.333
aF0.25
aF0.406
aF0.188
aF0.188
aF0.394
aF0.344
aF0.313
aF0.188
aF0.313
aa(lp20
g8
aF0.121
aF0.375
aF0.25
aF0.313
aF0.281
aF0.273
aF0.406
aF0.156
aF0.281
aF0.188
aF0.182
aF0.219
aF0.281
aF0.25
aF0.281
aa(lp21
g10
aF0.121
aF0.063
aF0.156
aF0.125
aF0.125
aF0.091
aF0.031
aF0.156
aF0.156
aF0.125
aF0.061
aF0.094
aF0.125
aF0.125
aF0.063
aa(lp22
g12
aF0.242
aF0.313
aF0.25
aF0.25
aF0.094
aF0.212
aF0.188
aF0.281
aF0.188
aF0.219
aF0.273
aF0.281
aF0.281
aF0.125
aF0.125
aa(lp23
g14
aF0.485
aF0.25
aF0.281
aF0.438
aF0.313
aF0.333
aF0.313
aF0.25
aF0.25
aF0.406
aF0.333
aF0.344
aF0.406
aF0.313
aF0.344
aa(lp24
g16
aF0.273
aF0.344
aF0.313
aF0.406
aF0.281
aF0.273
aF0.313
aF0.313
aF0.375
aF0.25
aF0.273
aF0.406
aF0.375
aF0.375
aF0.375
aasS'Recall'
p25
(lp26
(lp27
g6
aF0.86
aF0.786
aF0.768
aF0.821
aF0.804
aF0.754
aF0.839
aF0.821
aF0.786
aF0.786
aF0.772
aF0.75
aF0.839
aF0.804
aF0.875
aa(lp28
g8
aF0.719
aF0.893
aF0.732
aF0.625
aF0.911
aF0.737
aF0.786
aF0.696
aF0.821
aF0.768
aF0.842
aF0.821
aF0.768
aF0.732
aF0.786
aa(lp29
g10
aF0.316
aF0.321
aF0.232
aF0.482
aF0.446
aF0.351
aF0.375
aF0.321
aF0.339
aF0.304
aF0.316
aF0.446
aF0.411
aF0.179
aF0.304
aa(lp30
g12
aF0.86
aF0.857
aF0.857
aF0.821
aF0.946
aF0.772
aF0.786
aF0.893
aF0.821
aF0.839
aF0.825
aF0.821
aF0.839
aF0.804
aF0.929
aa(lp31
g14
aF0.825
aF0.768
aF0.786
aF0.804
aF0.857
aF0.825
aF0.75
aF0.857
aF0.804
aF0.875
aF0.807
aF0.821
aF0.821
aF0.786
aF0.875
aa(lp32
g16
aF0.807
aF0.768
aF0.929
aF0.804
aF0.857
aF0.754
aF0.875
aF0.857
aF0.893
aF0.839
aF0.825
aF0.768
aF0.821
aF0.821
aF0.857
aasS'Precision'
p33
(lp34
(lp35
g6
aF0.86
aF0.8
aF0.827
aF0.885
aF0.833
aF0.796
aF0.855
aF0.78
aF0.88
aF0.88
aF0.772
aF0.792
aF0.825
aF0.882
aF0.831
aa(lp36
g8
aF0.911
aF0.806
aF0.837
aF0.778
aF0.85
aF0.824
aF0.772
aF0.886
aF0.836
aF0.878
aF0.889
aF0.868
aF0.827
aF0.837
aF0.83
aa(lp37
g10
aF0.818
aF0.9
aF0.722
aF0.871
aF0.862
aF0.87
aF0.955
aF0.783
aF0.792
aF0.81
aF0.9
aF0.893
aF0.852
aF0.714
aF0.895
aa(lp38
g12
aF0.86
aF0.828
aF0.857
aF0.852
aF0.946
aF0.863
aF0.88
aF0.847
aF0.885
aF0.87
aF0.839
aF0.836
aF0.839
aF0.918
aF0.929
aa(lp39
g14
aF0.746
aF0.843
aF0.83
aF0.763
aF0.828
aF0.81
aF0.808
aF0.857
aF0.849
aF0.79
aF0.807
aF0.807
aF0.78
aF0.815
aF0.817
aa(lp40
g16
aF0.836
aF0.796
aF0.839
aF0.776
aF0.842
aF0.827
aF0.831
aF0.828
aF0.806
aF0.855
aF0.839
aF0.768
aF0.793
aF0.793
aF0.8
aasS'F_score'
p41
(lp42
(lp43
g6
aF0.86
aF0.793
aF0.796
aF0.852
aF0.818
aF0.775
aF0.847
aF0.8
aF0.83
aF0.83
aF0.772
aF0.771
aF0.832
aF0.841
aF0.852
aa(lp44
g8
aF0.804
aF0.847
aF0.781
aF0.693
aF0.879
aF0.778
aF0.779
aF0.78
aF0.829
aF0.819
aF0.865
aF0.844
aF0.796
aF0.781
aF0.807
aa(lp45
g10
aF0.456
aF0.474
aF0.351
aF0.621
aF0.588
aF0.5
aF0.538
aF0.456
aF0.475
aF0.442
aF0.468
aF0.595
aF0.554
aF0.286
aF0.453
aa(lp46
g12
aF0.86
aF0.842
aF0.857
aF0.836
aF0.946
aF0.815
aF0.83
aF0.87
aF0.852
aF0.855
aF0.832
aF0.829
aF0.839
aF0.857
aF0.929
aa(lp47
g14
aF0.783
aF0.804
aF0.807
aF0.783
aF0.842
aF0.817
aF0.778
aF0.857
aF0.826
aF0.831
aF0.807
aF0.814
aF0.8
aF0.8
aF0.845
aa(lp48
g16
aF0.821
aF0.782
aF0.881
aF0.789
aF0.85
aF0.789
aF0.852
aF0.842
aF0.847
aF0.847
aF0.832
aF0.768
aF0.807
aF0.807
aF0.828
aasS'Accuracy'
p49
(lp50
(lp51
g6
aF0.822
aF0.739
aF0.75
aF0.818
aF0.773
aF0.722
aF0.807
aF0.739
aF0.795
aF0.795
aF0.711
aF0.716
aF0.784
aF0.807
aF0.807
aa(lp52
g8
aF0.778
aF0.795
aF0.739
aF0.648
aF0.841
aF0.733
aF0.716
aF0.75
aF0.784
aF0.784
aF0.833
aF0.807
aF0.75
aF0.739
aF0.761
aa(lp53
g10
aF0.522
aF0.545
aF0.455
aF0.625
aF0.602
aF0.556
aF0.591
aF0.511
aF0.523
aF0.511
aF0.544
aF0.614
aF0.58
aF0.432
aF0.534
aa(lp54
g12
aF0.822
aF0.795
aF0.818
aF0.795
aF0.932
aF0.778
aF0.795
aF0.83
aF0.818
aF0.818
aF0.789
aF0.784
aF0.795
aF0.83
aF0.909
aa(lp55
g14
aF0.711
aF0.761
aF0.761
aF0.716
aF0.795
aF0.767
aF0.727
aF0.818
aF0.784
aF0.773
aF0.756
aF0.761
aF0.739
aF0.75
aF0.795
aa(lp56
g16
aF0.778
aF0.727
aF0.841
aF0.727
aF0.807
aF0.744
aF0.807
aF0.795
aF0.795
aF0.807
aF0.789
aF0.705
aF0.75
aF0.75
aF0.773
aass.