(dp0
S'ant'
p1
(dp2
S'False_alarm'
p3
(lp4
(lp5
S'KNN'
p6
aF0.31
aF0.259
aF0.276
aF0.267
aF0.157
aF0.259
aF0.198
aF0.224
aF0.233
aF0.243
aF0.181
aF0.129
aF0.302
aF0.284
aF0.287
aF0.224
aF0.224
aF0.259
aF0.216
aF0.235
aF0.25
aF0.25
aF0.302
aF0.241
aF0.183
aa(lp7
S'SVM'
p8
aF0.181
aF0.086
aF0.276
aF0.155
aF0.2
aF0.164
aF0.216
aF0.233
aF0.216
aF0.191
aF0.172
aF0.19
aF0.207
aF0.129
aF0.122
aF0.276
aF0.086
aF0.147
aF0.19
aF0.139
aF0.198
aF0.112
aF0.207
aF0.147
aF0.148
aa(lp9
S'NB'
p10
aF0.095
aF0.276
aF0.138
aF0.379
aF0.139
aF0.112
aF0.129
aF0.129
aF0.147
aF0.27
aF0.164
aF0.233
aF0.103
aF0.172
aF0.139
aF0.103
aF0.155
aF0.181
aF0.31
aF0.165
aF0.147
aF0.164
aF0.147
aF0.19
aF0.148
aa(lp11
S'RF'
p12
aF0.052
aF0.043
aF0.078
aF0.129
aF0.165
aF0.095
aF0.121
aF0.129
aF0.103
aF0.07
aF0.052
aF0.129
aF0.078
aF0.129
aF0.07
aF0.121
aF0.069
aF0.103
aF0.086
aF0.078
aF0.103
aF0.06
aF0.095
aF0.078
aF0.061
aa(lp13
S'LR'
p14
aF0.19
aF0.207
aF0.207
aF0.147
aF0.157
aF0.147
aF0.216
aF0.284
aF0.216
aF0.2
aF0.216
aF0.19
aF0.155
aF0.207
aF0.157
aF0.172
aF0.198
aF0.207
aF0.181
aF0.226
aF0.259
aF0.19
aF0.138
aF0.216
aF0.243
aa(lp15
S'DT'
p16
aF0.103
aF0.103
aF0.121
aF0.112
aF0.078
aF0.198
aF0.112
aF0.086
aF0.121
aF0.122
aF0.121
aF0.112
aF0.052
aF0.121
aF0.2
aF0.181
aF0.129
aF0.086
aF0.086
aF0.2
aF0.147
aF0.06
aF0.224
aF0.078
aF0.13
aasS'Recall'
p17
(lp18
(lp19
g6
aF0.794
aF0.697
aF0.727
aF0.545
aF0.636
aF0.765
aF0.758
aF0.727
aF0.697
aF0.606
aF0.735
aF0.576
aF0.727
aF0.727
aF0.879
aF0.706
aF0.758
aF0.606
aF0.606
aF0.758
aF0.588
aF0.636
aF0.727
aF0.788
aF0.697
aa(lp20
g8
aF0.5
aF0.455
aF0.727
aF0.576
aF0.606
aF0.735
aF0.636
aF0.636
aF0.727
aF0.485
aF0.618
aF0.667
aF0.606
aF0.667
aF0.515
aF0.647
aF0.515
aF0.606
aF0.697
aF0.606
aF0.588
aF0.606
aF0.636
aF0.667
aF0.576
aa(lp21
g10
aF0.588
aF0.697
aF0.394
aF0.818
aF0.485
aF0.5
aF0.576
aF0.606
aF0.576
aF0.697
aF0.647
aF0.636
aF0.455
aF0.727
aF0.455
aF0.529
aF0.576
aF0.697
aF0.697
aF0.606
aF0.706
aF0.636
aF0.576
aF0.576
aF0.606
aa(lp22
g12
aF0.559
aF0.424
aF0.394
aF0.455
aF0.576
aF0.5
aF0.333
aF0.303
aF0.485
aF0.576
aF0.382
aF0.455
aF0.424
aF0.424
aF0.424
aF0.382
aF0.364
aF0.455
aF0.455
aF0.576
aF0.412
aF0.424
aF0.515
aF0.485
aF0.455
aa(lp23
g14
aF0.794
aF0.455
aF0.576
aF0.697
aF0.727
aF0.794
aF0.818
aF0.636
aF0.667
aF0.576
aF0.588
aF0.667
aF0.667
aF0.727
aF0.667
aF0.706
aF0.727
aF0.758
aF0.667
aF0.667
aF0.735
aF0.667
aF0.636
aF0.636
aF0.636
aa(lp24
g16
aF0.382
aF0.333
aF0.242
aF0.364
aF0.364
aF0.618
aF0.273
aF0.424
aF0.364
aF0.273
aF0.441
aF0.364
aF0.242
aF0.485
aF0.455
aF0.412
aF0.455
aF0.455
aF0.515
aF0.424
aF0.294
aF0.212
aF0.576
aF0.273
aF0.424
aasS'Precision'
p25
(lp26
(lp27
g6
aF0.429
aF0.434
aF0.429
aF0.367
aF0.538
aF0.464
aF0.521
aF0.48
aF0.46
aF0.417
aF0.543
aF0.559
aF0.407
aF0.421
aF0.468
aF0.48
aF0.49
aF0.4
aF0.444
aF0.481
aF0.408
aF0.42
aF0.407
aF0.481
aF0.523
aa(lp28
g8
aF0.447
aF0.6
aF0.429
aF0.514
aF0.465
aF0.568
aF0.457
aF0.438
aF0.49
aF0.421
aF0.512
aF0.5
aF0.455
aF0.595
aF0.548
aF0.407
aF0.63
aF0.541
aF0.511
aF0.556
aF0.465
aF0.606
aF0.467
aF0.564
aF0.528
aa(lp29
g10
aF0.645
aF0.418
aF0.448
aF0.38
aF0.5
aF0.567
aF0.559
aF0.571
aF0.528
aF0.426
aF0.537
aF0.438
aF0.556
aF0.545
aF0.484
aF0.6
aF0.514
aF0.523
aF0.39
aF0.513
aF0.585
aF0.525
aF0.528
aF0.463
aF0.541
aa(lp30
g12
aF0.76
aF0.737
aF0.591
aF0.5
aF0.5
aF0.607
aF0.44
aF0.4
aF0.571
aF0.704
aF0.684
aF0.5
aF0.609
aF0.483
aF0.636
aF0.481
aF0.6
aF0.556
aF0.6
aF0.679
aF0.538
aF0.667
aF0.607
aF0.64
aF0.682
aa(lp31
g14
aF0.551
aF0.385
aF0.442
aF0.575
aF0.571
aF0.614
aF0.519
aF0.389
aF0.468
aF0.452
aF0.444
aF0.5
aF0.55
aF0.5
aF0.55
aF0.545
aF0.511
aF0.51
aF0.512
aF0.458
aF0.455
aF0.5
aF0.568
aF0.457
aF0.429
aa(lp32
g16
aF0.52
aF0.478
aF0.364
aF0.48
aF0.571
aF0.477
aF0.409
aF0.583
aF0.462
aF0.391
aF0.517
aF0.48
aF0.571
aF0.533
aF0.395
aF0.4
aF0.5
aF0.6
aF0.63
aF0.378
aF0.37
aF0.5
aF0.422
aF0.5
aF0.483
aasS'F_score'
p33
(lp34
(lp35
g6
aF0.557
aF0.535
aF0.539
aF0.439
aF0.583
aF0.578
aF0.617
aF0.578
aF0.554
aF0.494
aF0.625
aF0.567
aF0.522
aF0.533
aF0.611
aF0.571
aF0.595
aF0.482
aF0.513
aF0.588
aF0.482
aF0.506
aF0.522
aF0.598
aF0.597
aa(lp36
g8
aF0.472
aF0.517
aF0.539
aF0.543
aF0.526
aF0.641
aF0.532
aF0.519
aF0.585
aF0.451
aF0.56
aF0.571
aF0.519
aF0.629
aF0.531
aF0.5
aF0.567
aF0.571
aF0.59
aF0.58
aF0.519
aF0.606
aF0.538
aF0.611
aF0.551
aa(lp37
g10
aF0.615
aF0.523
aF0.419
aF0.519
aF0.492
aF0.531
aF0.567
aF0.588
aF0.551
aF0.529
aF0.587
aF0.519
aF0.5
aF0.623
aF0.469
aF0.563
aF0.543
aF0.597
aF0.5
aF0.556
aF0.64
aF0.575
aF0.551
aF0.514
aF0.571
aa(lp38
g12
aF0.644
aF0.538
aF0.473
aF0.476
aF0.535
aF0.548
aF0.379
aF0.345
aF0.525
aF0.633
aF0.491
aF0.476
aF0.5
aF0.452
aF0.509
aF0.426
aF0.453
aF0.5
aF0.517
aF0.623
aF0.467
aF0.519
aF0.557
aF0.552
aF0.545
aa(lp39
g14
aF0.651
aF0.417
aF0.5
aF0.63
aF0.64
aF0.692
aF0.635
aF0.483
aF0.55
aF0.507
aF0.506
aF0.571
aF0.603
aF0.593
aF0.603
aF0.615
aF0.6
aF0.61
aF0.579
aF0.543
aF0.562
aF0.571
aF0.6
aF0.532
aF0.512
aa(lp40
g16
aF0.441
aF0.393
aF0.291
aF0.414
aF0.444
aF0.538
aF0.327
aF0.491
aF0.407
aF0.321
aF0.476
aF0.414
aF0.34
aF0.508
aF0.423
aF0.406
aF0.476
aF0.517
aF0.567
aF0.4
aF0.328
aF0.298
aF0.487
aF0.353
aF0.452
aasS'Accuracy'
p41
(lp42
(lp43
g6
aF0.713
aF0.732
aF0.725
aF0.691
aF0.797
aF0.747
aF0.792
aF0.765
aF0.752
aF0.723
aF0.8
aF0.805
aF0.705
aF0.718
aF0.75
aF0.76
aF0.772
aF0.711
aF0.745
aF0.764
aF0.713
aF0.725
aF0.705
aF0.765
aF0.791
aa(lp44
g8
aF0.747
aF0.812
aF0.725
aF0.785
aF0.757
aF0.813
aF0.752
aF0.738
aF0.772
aF0.736
aF0.78
aF0.779
aF0.752
aF0.826
aF0.797
aF0.707
aF0.826
aF0.799
aF0.785
aF0.804
aF0.753
aF0.826
aF0.758
aF0.812
aF0.791
aa(lp45
g10
aF0.833
aF0.718
aF0.758
aF0.664
aF0.777
aF0.8
aF0.805
aF0.812
aF0.792
aF0.723
aF0.793
aF0.738
aF0.799
aF0.805
aF0.77
aF0.813
aF0.785
aF0.792
aF0.691
aF0.784
aF0.82
aF0.792
aF0.792
aF0.758
aF0.797
aa(lp46
g12
aF0.86
aF0.839
aF0.805
aF0.779
aF0.777
aF0.813
aF0.758
aF0.745
aF0.805
aF0.851
aF0.82
aF0.779
aF0.812
aF0.772
aF0.818
aF0.767
aF0.805
aF0.799
aF0.812
aF0.845
aF0.787
aF0.826
aF0.819
aF0.826
aF0.831
aa(lp47
g14
aF0.807
aF0.718
aF0.745
aF0.819
aF0.818
aF0.84
aF0.792
aF0.698
aF0.758
aF0.75
aF0.74
aF0.779
aF0.805
aF0.779
aF0.804
aF0.8
aF0.785
aF0.785
aF0.785
aF0.75
aF0.74
aF0.779
aF0.812
aF0.752
aF0.73
aa(lp48
g16
aF0.78
aF0.772
aF0.738
aF0.772
aF0.797
aF0.76
aF0.752
aF0.805
aF0.765
aF0.743
aF0.78
aF0.772
aF0.792
aF0.792
aF0.723
aF0.727
aF0.779
aF0.812
aF0.826
aF0.716
aF0.727
aF0.779
aF0.732
aF0.779
aF0.77
aass.