(dp0
S'ant'
p1
(dp2
S'AUC'
p3
(lp4
(lp5
S'KNN'
p6
aF0.267
aF0.224
aF0.241
aF0.216
aF0.209
aF0.112
aF0.259
aF0.25
aF0.216
aF0.2
aF0.216
aF0.302
aF0.267
aF0.181
aF0.278
aa(lp7
S'SVM'
p8
aF0.198
aF0.19
aF0.241
aF0.181
aF0.139
aF0.103
aF0.216
aF0.233
aF0.224
aF0.165
aF0.155
aF0.155
aF0.241
aF0.19
aF0.148
aa(lp9
S'NB'
p10
aF0.224
aF0.19
aF0.103
aF0.181
aF0.174
aF0.172
aF0.095
aF0.164
aF0.129
aF0.165
aF0.172
aF0.267
aF0.172
aF0.19
aF0.165
aa(lp11
S'RF'
p12
aF0.086
aF0.147
aF0.121
aF0.147
aF0.07
aF0.121
aF0.069
aF0.052
aF0.103
aF0.139
aF0.095
aF0.129
aF0.086
aF0.103
aF0.104
aa(lp13
S'LR'
p14
aF0.181
aF0.19
aF0.216
aF0.259
aF0.139
aF0.172
aF0.155
aF0.233
aF0.267
aF0.209
aF0.302
aF0.129
aF0.207
aF0.172
aF0.13
aa(lp15
S'DT'
p16
aF0.121
aF0.138
aF0.138
aF0.155
aF0.148
aF0.147
aF0.207
aF0.181
aF0.086
aF0.157
aF0.164
aF0.112
aF0.103
aF0.095
aF0.148
aasS'False_alarm'
p17
(lp18
(lp19
g6
aF0.267
aF0.224
aF0.241
aF0.216
aF0.209
aF0.112
aF0.259
aF0.25
aF0.216
aF0.2
aF0.216
aF0.302
aF0.267
aF0.181
aF0.278
aa(lp20
g8
aF0.198
aF0.19
aF0.241
aF0.181
aF0.139
aF0.103
aF0.216
aF0.233
aF0.224
aF0.165
aF0.155
aF0.155
aF0.241
aF0.19
aF0.148
aa(lp21
g10
aF0.224
aF0.19
aF0.103
aF0.181
aF0.174
aF0.172
aF0.095
aF0.164
aF0.129
aF0.165
aF0.172
aF0.267
aF0.172
aF0.19
aF0.165
aa(lp22
g12
aF0.086
aF0.147
aF0.121
aF0.147
aF0.07
aF0.121
aF0.069
aF0.052
aF0.103
aF0.139
aF0.095
aF0.129
aF0.086
aF0.103
aF0.104
aa(lp23
g14
aF0.181
aF0.19
aF0.216
aF0.259
aF0.139
aF0.172
aF0.155
aF0.233
aF0.267
aF0.209
aF0.302
aF0.129
aF0.207
aF0.172
aF0.13
aa(lp24
g16
aF0.121
aF0.138
aF0.138
aF0.155
aF0.148
aF0.147
aF0.207
aF0.181
aF0.086
aF0.157
aF0.164
aF0.112
aF0.103
aF0.095
aF0.148
aasS'Recall'
p25
(lp26
(lp27
g6
aF0.765
aF0.727
aF0.667
aF0.697
aF0.758
aF0.618
aF0.576
aF0.667
aF0.636
aF0.727
aF0.735
aF0.697
aF0.758
aF0.697
aF0.727
aa(lp28
g8
aF0.647
aF0.576
aF0.667
aF0.545
aF0.667
aF0.559
aF0.515
aF0.758
aF0.697
aF0.667
aF0.559
aF0.545
aF0.697
aF0.576
aF0.606
aa(lp29
g10
aF0.5
aF0.727
aF0.636
aF0.545
aF0.606
aF0.676
aF0.545
aF0.576
aF0.576
aF0.636
aF0.5
aF0.636
aF0.788
aF0.545
aF0.576
aa(lp30
g12
aF0.353
aF0.455
aF0.273
aF0.576
aF0.333
aF0.471
aF0.455
aF0.515
aF0.364
aF0.636
aF0.324
aF0.515
aF0.364
aF0.485
aF0.424
aa(lp31
g14
aF0.618
aF0.636
aF0.697
aF0.636
aF0.758
aF0.647
aF0.667
aF0.667
aF0.727
aF0.576
aF0.794
aF0.697
aF0.667
aF0.667
aF0.606
aa(lp32
g16
aF0.324
aF0.394
aF0.273
aF0.394
aF0.515
aF0.559
aF0.606
aF0.545
aF0.364
aF0.455
aF0.353
aF0.333
aF0.455
aF0.606
aF0.394
aasS'Precision'
p33
(lp34
(lp35
g6
aF0.456
aF0.48
aF0.44
aF0.479
aF0.51
aF0.618
aF0.388
aF0.431
aF0.457
aF0.511
aF0.5
aF0.397
aF0.446
aF0.523
aF0.429
aa(lp36
g8
aF0.489
aF0.463
aF0.44
aF0.462
aF0.579
aF0.613
aF0.405
aF0.481
aF0.469
aF0.537
aF0.514
aF0.5
aF0.451
aF0.463
aF0.541
aa(lp37
g10
aF0.395
aF0.522
aF0.636
aF0.462
aF0.5
aF0.535
aF0.621
aF0.5
aF0.559
aF0.525
aF0.459
aF0.404
aF0.565
aF0.45
aF0.5
aa(lp38
g12
aF0.545
aF0.469
aF0.391
aF0.528
aF0.579
aF0.533
aF0.652
aF0.739
aF0.5
aF0.568
aF0.5
aF0.531
aF0.545
aF0.571
aF0.538
aa(lp39
g14
aF0.5
aF0.488
aF0.479
aF0.412
aF0.61
aF0.524
aF0.55
aF0.449
aF0.436
aF0.442
aF0.435
aF0.605
aF0.478
aF0.524
aF0.571
aa(lp40
g16
aF0.44
aF0.448
aF0.36
aF0.419
aF0.5
aF0.528
aF0.455
aF0.462
aF0.545
aF0.455
aF0.387
aF0.458
aF0.556
aF0.645
aF0.433
aasS'F_score'
p41
(lp42
(lp43
g6
aF0.571
aF0.578
aF0.53
aF0.568
aF0.61
aF0.618
aF0.463
aF0.524
aF0.532
aF0.6
aF0.595
aF0.505
aF0.562
aF0.597
aF0.539
aa(lp44
g8
aF0.557
aF0.514
aF0.53
aF0.5
aF0.62
aF0.585
aF0.453
aF0.588
aF0.561
aF0.595
aF0.535
aF0.522
aF0.548
aF0.514
aF0.571
aa(lp45
g10
aF0.442
aF0.608
aF0.636
aF0.5
aF0.548
aF0.597
aF0.581
aF0.535
aF0.567
aF0.575
aF0.479
aF0.494
aF0.658
aF0.493
aF0.535
aa(lp46
g12
aF0.429
aF0.462
aF0.321
aF0.551
aF0.423
aF0.5
aF0.536
aF0.607
aF0.421
aF0.6
aF0.393
aF0.523
aF0.436
aF0.525
aF0.475
aa(lp47
g14
aF0.553
aF0.553
aF0.568
aF0.5
aF0.676
aF0.579
aF0.603
aF0.537
aF0.545
aF0.5
aF0.563
aF0.648
aF0.557
aF0.587
aF0.588
aa(lp48
g16
aF0.373
aF0.419
aF0.31
aF0.406
aF0.507
aF0.543
aF0.519
aF0.5
aF0.436
aF0.455
aF0.369
aF0.386
aF0.5
aF0.625
aF0.413
aasS'Accuracy'
p49
(lp50
(lp51
g6
aF0.74
aF0.765
aF0.738
aF0.765
aF0.784
aF0.827
aF0.705
aF0.732
aF0.752
aF0.784
aF0.773
aF0.698
aF0.738
aF0.792
aF0.723
aa(lp52
g8
aF0.767
aF0.758
aF0.738
aF0.758
aF0.818
aF0.82
aF0.725
aF0.765
aF0.758
aF0.797
aF0.78
aF0.779
aF0.745
aF0.758
aF0.797
aa(lp53
g10
aF0.713
aF0.792
aF0.839
aF0.758
aF0.777
aF0.793
aF0.826
aF0.779
aF0.805
aF0.791
aF0.753
aF0.711
aF0.819
aF0.752
aF0.777
aa(lp54
g12
aF0.787
aF0.765
aF0.745
aF0.792
aF0.797
aF0.787
aF0.826
aF0.852
aF0.779
aF0.811
aF0.773
aF0.792
aF0.792
aF0.805
aF0.791
aa(lp55
g14
aF0.773
aF0.772
aF0.765
aF0.718
aF0.838
aF0.787
aF0.805
aF0.745
aF0.732
aF0.743
aF0.72
aF0.832
aF0.765
aF0.792
aF0.811
aa(lp56
g16
aF0.753
aF0.758
aF0.732
aF0.745
aF0.777
aF0.787
aF0.752
aF0.758
aF0.792
aF0.757
aF0.727
aF0.765
aF0.799
aF0.839
aF0.75
aass.