(dp0
S'arc'
p1
(dp2
S'AUC'
p3
(lp4
(lp5
S'KNN'
p6
aF0.286
aF0.238
aF0.146
aF0.317
aF0.268
aF0.286
aF0.31
aF0.341
aF0.22
aF0.268
aF0.238
aF0.286
aF0.293
aF0.146
aF0.415
aa(lp7
S'SVM'
p8
aF0.262
aF0.286
aF0.268
aF0.22
aF0.268
aF0.333
aF0.238
aF0.195
aF0.317
aF0.195
aF0.167
aF0.19
aF0.268
aF0.341
aF0.268
aa(lp9
S'NB'
p10
aF0.524
aF0.31
aF0.366
aF0.707
aF0.659
aF0.405
aF0.595
aF0.634
aF0.732
aF0.366
aF0.476
aF0.452
aF0.61
aF0.585
aF0.561
aa(lp11
S'RF'
p12
aF0.0
aF0.095
aF0.0
aF0.122
aF0.146
aF0.143
aF0.095
aF0.098
aF0.195
aF0.0
aF0.119
aF0.143
aF0.098
aF0.146
aF0.073
aa(lp13
S'LR'
p14
aF0.143
aF0.262
aF0.268
aF0.268
aF0.244
aF0.405
aF0.19
aF0.268
aF0.22
aF0.268
aF0.238
aF0.286
aF0.22
aF0.098
aF0.293
aa(lp15
S'DT'
p16
aF0.071
aF0.19
aF0.195
aF0.146
aF0.293
aF0.214
aF0.0
aF0.171
aF0.098
aF0.171
aF0.143
aF0.095
aF0.146
aF0.22
aF0.0
aasS'False_alarm'
p17
(lp18
(lp19
g6
aF0.286
aF0.238
aF0.146
aF0.317
aF0.268
aF0.286
aF0.31
aF0.341
aF0.22
aF0.268
aF0.238
aF0.286
aF0.293
aF0.146
aF0.415
aa(lp20
g8
aF0.262
aF0.286
aF0.268
aF0.22
aF0.268
aF0.333
aF0.238
aF0.195
aF0.317
aF0.195
aF0.167
aF0.19
aF0.268
aF0.341
aF0.268
aa(lp21
g10
aF0.524
aF0.31
aF0.366
aF0.707
aF0.659
aF0.405
aF0.595
aF0.634
aF0.732
aF0.366
aF0.476
aF0.452
aF0.61
aF0.585
aF0.561
aa(lp22
g12
aF0.0
aF0.095
aF0.0
aF0.122
aF0.146
aF0.143
aF0.095
aF0.098
aF0.195
aF0.0
aF0.119
aF0.143
aF0.098
aF0.146
aF0.073
aa(lp23
g14
aF0.143
aF0.262
aF0.268
aF0.268
aF0.244
aF0.405
aF0.19
aF0.268
aF0.22
aF0.268
aF0.238
aF0.286
aF0.22
aF0.098
aF0.293
aa(lp24
g16
aF0.071
aF0.19
aF0.195
aF0.146
aF0.293
aF0.214
aF0.0
aF0.171
aF0.098
aF0.171
aF0.143
aF0.095
aF0.146
aF0.22
aF0.0
aasS'Recall'
p25
(lp26
(lp27
g6
aF0.333
aF0.5
aF0.4
aF0.6
aF0.2
aF0.5
aF0.5
aF0.6
aF0.4
aF0.6
aF0.167
aF0.167
aF0.4
aF0.4
aF0.6
aa(lp28
g8
aF0.667
aF0.667
aF0.6
aF0.6
aF0.6
aF0.667
aF0.667
aF0.4
aF0.6
aF0.2
aF0.5
aF0.667
aF0.8
aF0.4
aF0.6
aa(lp29
g10
aF0.667
aF0.5
aF1.0
aF1.0
aF0.4
aF0.667
aF0.667
aF0.6
aF1.0
aF0.4
aF0.833
aF0.667
aF1.0
aF0.4
aF0.8
aa(lp30
g12
aF0.0
aF0.333
aF0.0
aF0.6
aF0.4
aF0.333
aF0.167
aF0.4
aF0.2
aF0.0
aF0.667
aF0.5
aF0.4
aF0.4
aF0.2
aa(lp31
g14
aF0.667
aF0.833
aF0.8
aF0.4
aF0.8
aF0.5
aF0.667
aF0.2
aF0.6
aF0.6
aF0.333
aF0.667
aF0.6
aF0.8
aF0.6
aa(lp32
g16
aF0.333
aF0.333
aF0.2
aF0.6
aF0.6
aF0.167
aF0.0
aF0.4
aF0.4
aF0.6
aF0.5
aF0.333
aF0.4
aF0.4
aF0.0
aasS'Precision'
p33
(lp34
(lp35
g6
aF0.143
aF0.231
aF0.25
aF0.188
aF0.083
aF0.2
aF0.188
aF0.176
aF0.182
aF0.214
aF0.091
aF0.077
aF0.143
aF0.25
aF0.15
aa(lp36
g8
aF0.267
aF0.25
aF0.214
aF0.25
aF0.214
aF0.222
aF0.286
aF0.2
aF0.188
aF0.111
aF0.3
aF0.333
aF0.267
aF0.125
aF0.214
aa(lp37
g10
aF0.154
aF0.188
aF0.25
aF0.147
aF0.069
aF0.19
aF0.138
aF0.103
aF0.143
aF0.118
aF0.2
aF0.174
aF0.167
aF0.077
aF0.148
aa(lp38
g12
aF0.0
aF0.333
aF0.0
aF0.375
aF0.25
aF0.25
aF0.2
aF0.333
aF0.111
aF0.0
aF0.444
aF0.333
aF0.333
aF0.25
aF0.25
aa(lp39
g14
aF0.4
aF0.313
aF0.267
aF0.154
aF0.286
aF0.15
aF0.333
aF0.083
aF0.25
aF0.214
aF0.167
aF0.25
aF0.25
aF0.5
aF0.2
aa(lp40
g16
aF0.4
aF0.2
aF0.111
aF0.333
aF0.2
aF0.1
aF0.0
aF0.222
aF0.333
aF0.3
aF0.333
aF0.333
aF0.25
aF0.182
aF0.0
aasS'F_score'
p41
(lp42
(lp43
g6
aF0.2
aF0.316
aF0.308
aF0.286
aF0.118
aF0.286
aF0.273
aF0.273
aF0.25
aF0.316
aF0.118
aF0.105
aF0.211
aF0.308
aF0.24
aa(lp44
g8
aF0.381
aF0.364
aF0.316
aF0.353
aF0.316
aF0.333
aF0.4
aF0.267
aF0.286
aF0.143
aF0.375
aF0.444
aF0.4
aF0.19
aF0.316
aa(lp45
g10
aF0.25
aF0.273
aF0.4
aF0.256
aF0.118
aF0.296
aF0.229
aF0.176
aF0.25
aF0.182
aF0.323
aF0.276
aF0.286
aF0.129
aF0.25
aa(lp46
g12
aF0.0
aF0.333
aF0.0
aF0.462
aF0.308
aF0.286
aF0.182
aF0.364
aF0.143
aF0.0
aF0.533
aF0.4
aF0.364
aF0.308
aF0.222
aa(lp47
g14
aF0.5
aF0.455
aF0.4
aF0.222
aF0.421
aF0.231
aF0.444
aF0.118
aF0.353
aF0.316
aF0.222
aF0.364
aF0.353
aF0.615
aF0.3
aa(lp48
g16
aF0.364
aF0.25
aF0.143
aF0.429
aF0.3
aF0.125
aF0.0
aF0.286
aF0.364
aF0.4
aF0.4
aF0.333
aF0.308
aF0.25
aF0.0
aasS'Accuracy'
p49
(lp50
(lp51
g6
aF0.667
aF0.729
aF0.804
aF0.674
aF0.674
aF0.688
aF0.667
aF0.652
aF0.739
aF0.717
aF0.688
aF0.646
aF0.674
aF0.804
aF0.587
aa(lp52
g8
aF0.729
aF0.708
aF0.717
aF0.761
aF0.717
aF0.667
aF0.75
aF0.761
aF0.674
aF0.739
aF0.792
aF0.792
aF0.739
aF0.63
aF0.717
aa(lp53
g10
aF0.5
aF0.667
aF0.674
aF0.37
aF0.348
aF0.604
aF0.438
aF0.391
aF0.348
aF0.609
aF0.563
aF0.563
aF0.457
aF0.413
aF0.478
aa(lp54
g12
aF0.0
aF0.833
aF0.0
aF0.848
aF0.804
aF0.792
aF0.813
aF0.848
aF0.739
aF0.0
aF0.854
aF0.813
aF0.848
aF0.804
aF0.848
aa(lp55
g14
aF0.833
aF0.75
aF0.739
aF0.696
aF0.761
aF0.583
aF0.792
aF0.674
aF0.761
aF0.717
aF0.708
aF0.708
aF0.761
aF0.891
aF0.696
aa(lp56
g16
aF0.854
aF0.75
aF0.739
aF0.826
aF0.696
aF0.708
aF0.0
aF0.783
aF0.848
aF0.804
aF0.813
aF0.833
aF0.804
aF0.739
aF0.0
aass.