(dp0
S'arc'
p1
(dp2
S'Recall'
p3
(lp4
(lp5
S'KNN'
p6
aF0.762
aF0.786
aF0.805
aF0.756
aF0.488
aF0.762
aF0.69
aF0.683
aF0.854
aF0.829
aF0.738
aF0.762
aF0.854
aF0.78
aF0.829
aF0.81
aF0.714
aF0.659
aF0.585
aF0.878
aF0.619
aF0.857
aF0.634
aF0.683
aF0.829
aa(lp7
S'SVM'
p8
aF0.762
aF0.857
aF0.732
aF0.78
aF0.683
aF0.786
aF0.762
aF0.78
aF0.78
aF0.683
aF0.738
aF0.714
aF0.707
aF0.878
aF0.878
aF0.667
aF0.714
aF0.756
aF0.805
aF0.902
aF0.81
aF0.81
aF0.634
aF0.78
aF0.927
aa(lp9
S'NB'
p10
aF0.214
aF0.5
aF0.585
aF0.659
aF0.463
aF0.476
aF0.619
aF0.439
aF0.537
aF0.293
aF0.571
aF0.476
aF0.341
aF0.585
aF0.829
aF0.548
aF0.714
aF0.488
aF0.537
aF0.61
aF0.714
aF0.405
aF0.293
aF0.61
aF0.829
aa(lp11
S'RF'
p12
aF0.881
aF0.905
aF0.878
aF0.805
aF0.829
aF0.929
aF0.929
aF0.878
aF0.878
aF0.951
aF0.881
aF0.929
aF0.902
aF0.951
aF0.927
aF0.857
aF0.81
aF0.756
aF0.902
aF0.902
aF0.929
aF0.905
aF0.659
aF0.927
aF0.927
aa(lp13
S'LR'
p14
aF0.786
aF0.857
aF0.78
aF0.756
aF0.707
aF0.762
aF0.81
aF0.805
aF0.756
aF0.659
aF0.833
aF0.738
aF0.707
aF0.854
aF0.902
aF0.738
aF0.738
aF0.756
aF0.805
aF0.878
aF0.833
aF0.786
aF0.61
aF0.756
aF0.878
aa(lp15
S'DT'
p16
aF0.881
aF0.952
aF0.878
aF0.805
aF0.756
aF0.81
aF0.786
aF0.878
aF0.878
aF0.78
aF0.952
aF0.833
aF0.805
aF0.902
aF0.927
aF0.881
aF0.786
aF0.805
aF0.854
aF0.927
aF0.786
aF0.833
aF0.805
aF0.927
aF0.902
aasS'Precision'
p17
(lp18
(lp19
g6
aF0.97
aF0.846
aF0.917
aF0.969
aF0.952
aF0.865
aF0.906
aF0.933
aF0.897
aF0.971
aF0.912
aF0.914
aF0.946
aF0.914
aF0.919
aF0.895
aF0.882
aF0.931
aF0.96
aF0.878
aF0.897
aF0.947
aF0.963
aF0.875
aF0.919
aa(lp20
g8
aF0.914
aF0.923
aF0.882
aF0.97
aF0.966
aF0.917
aF0.914
aF0.941
aF0.914
aF0.966
aF0.886
aF0.938
aF0.935
aF0.947
aF0.923
aF0.966
aF0.909
aF0.912
aF0.971
aF0.925
aF0.895
aF0.944
aF0.963
aF0.914
aF0.905
aa(lp21
g10
aF0.9
aF0.955
aF0.923
aF0.964
aF0.905
aF0.87
aF0.929
aF0.857
aF0.917
aF1.0
aF0.889
aF0.952
aF0.933
aF0.96
aF0.919
aF0.92
aF0.909
aF0.909
aF0.957
aF0.926
aF0.968
aF0.944
aF0.923
aF0.893
aF0.919
aa(lp22
g12
aF0.902
aF0.884
aF0.9
aF0.943
aF0.919
aF0.929
aF0.907
aF0.9
aF0.9
aF0.929
aF0.925
aF0.867
aF0.925
aF0.929
aF0.905
aF0.923
aF0.895
aF0.912
aF0.925
aF0.881
aF0.907
aF0.905
aF0.964
aF0.905
aF0.927
aa(lp23
g14
aF0.917
aF0.923
aF0.889
aF0.969
aF0.967
aF0.914
aF0.895
aF0.917
aF0.912
aF1.0
aF0.897
aF0.912
aF0.935
aF0.946
aF0.925
aF0.969
aF0.912
aF0.912
aF0.971
aF0.923
aF0.897
aF0.943
aF0.962
aF0.912
aF0.947
aa(lp24
g16
aF0.949
aF0.909
aF0.9
aF0.917
aF0.912
aF0.919
aF0.892
aF0.9
aF0.878
aF0.941
aF0.93
aF0.854
aF0.917
aF0.925
aF0.905
aF0.925
aF0.892
aF0.868
aF0.946
aF0.905
aF0.868
aF0.875
aF0.943
aF0.905
aF0.925
aasS'F_score'
p25
(lp26
(lp27
g6
aF0.853
aF0.815
aF0.857
aF0.849
aF0.645
aF0.81
aF0.784
aF0.789
aF0.875
aF0.895
aF0.816
aF0.831
aF0.897
aF0.842
aF0.872
aF0.85
aF0.789
aF0.771
aF0.727
aF0.878
aF0.732
aF0.9
aF0.765
aF0.767
aF0.872
aa(lp28
g8
aF0.831
aF0.889
aF0.8
aF0.865
aF0.8
aF0.846
aF0.831
aF0.853
aF0.842
aF0.8
aF0.805
aF0.811
aF0.806
aF0.911
aF0.9
aF0.789
aF0.8
aF0.827
aF0.88
aF0.914
aF0.85
aF0.872
aF0.765
aF0.842
aF0.916
aa(lp29
g10
aF0.346
aF0.656
aF0.716
aF0.783
aF0.613
aF0.615
aF0.743
aF0.581
aF0.677
aF0.453
aF0.696
aF0.635
aF0.5
aF0.727
aF0.872
aF0.687
aF0.8
aF0.635
aF0.688
aF0.735
aF0.822
aF0.567
aF0.444
aF0.725
aF0.872
aa(lp30
g12
aF0.892
aF0.894
aF0.889
aF0.868
aF0.872
aF0.929
aF0.918
aF0.889
aF0.889
aF0.94
aF0.902
aF0.897
aF0.914
aF0.94
aF0.916
aF0.889
aF0.85
aF0.827
aF0.914
aF0.892
aF0.918
aF0.905
aF0.783
aF0.916
aF0.927
aa(lp31
g14
aF0.846
aF0.889
aF0.831
aF0.849
aF0.817
aF0.831
aF0.85
aF0.857
aF0.827
aF0.794
aF0.864
aF0.816
aF0.806
aF0.897
aF0.914
aF0.838
aF0.816
aF0.827
aF0.88
aF0.9
aF0.864
aF0.857
aF0.746
aF0.827
aF0.911
aa(lp32
g16
aF0.914
aF0.93
aF0.889
aF0.857
aF0.827
aF0.861
aF0.835
aF0.889
aF0.878
aF0.853
aF0.941
aF0.843
aF0.857
aF0.914
aF0.916
aF0.902
aF0.835
aF0.835
aF0.897
aF0.916
aF0.825
aF0.854
aF0.868
aF0.916
aF0.914
aasS'Accuracy'
p33
(lp34
(lp35
g6
aF0.771
aF0.688
aF0.761
aF0.761
aF0.522
aF0.688
aF0.667
aF0.674
aF0.783
aF0.826
aF0.708
aF0.729
aF0.826
aF0.739
aF0.783
aF0.75
aF0.667
aF0.652
aF0.609
aF0.783
aF0.604
aF0.833
aF0.652
aF0.63
aF0.783
aa(lp36
g8
aF0.729
aF0.813
aF0.674
aF0.783
aF0.696
aF0.75
aF0.729
aF0.761
aF0.739
aF0.696
aF0.688
aF0.708
aF0.696
aF0.848
aF0.826
aF0.688
aF0.688
aF0.717
aF0.804
aF0.848
aF0.75
aF0.792
aF0.652
aF0.739
aF0.848
aa(lp37
g10
aF0.292
aF0.542
aF0.587
aF0.674
aF0.478
aF0.479
aF0.625
aF0.435
aF0.543
aF0.37
aF0.563
aF0.521
aF0.391
aF0.609
aF0.783
aF0.563
aF0.688
aF0.5
aF0.565
aF0.609
aF0.729
aF0.458
aF0.348
aF0.587
aF0.783
aa(lp38
g12
aF0.813
aF0.813
aF0.804
aF0.783
aF0.783
aF0.875
aF0.854
aF0.804
aF0.804
aF0.891
aF0.833
aF0.813
aF0.848
aF0.891
aF0.848
aF0.813
aF0.75
aF0.717
aF0.848
aF0.804
aF0.854
aF0.833
aF0.674
aF0.848
aF0.87
aa(lp39
g14
aF0.75
aF0.813
aF0.717
aF0.761
aF0.717
aF0.729
aF0.75
aF0.761
aF0.717
aF0.696
aF0.771
aF0.708
aF0.696
aF0.826
aF0.848
aF0.75
aF0.708
aF0.717
aF0.804
aF0.826
aF0.771
aF0.771
aF0.63
aF0.717
aF0.848
aa(lp40
g16
aF0.854
aF0.875
aF0.804
aF0.761
aF0.717
aF0.771
aF0.729
aF0.804
aF0.783
aF0.761
aF0.896
aF0.729
aF0.761
aF0.848
aF0.848
aF0.833
aF0.729
aF0.717
aF0.826
aF0.848
aF0.708
aF0.75
aF0.783
aF0.848
aF0.848
aass.