(dp0
S'camel'
p1
(dp2
S'AUC'
p3
(lp4
(lp5
S'KNN'
p6
aF0.167
aF0.308
aF0.154
aF0.0
aF0.2
aF0.0
aF0.262
aF0.262
aF0.138
aF0.0
aF0.212
aF0.2
aF0.138
aF0.246
aF0.0
aa(lp7
S'SVM'
p8
aF0.212
aF0.185
aF0.185
aF0.0
aF0.154
aF0.227
aF0.215
aF0.0
aF0.0
aF0.169
aF0.106
aF0.277
aF0.0
aF0.308
aF0.0
aa(lp9
S'NB'
p10
aF0.091
aF0.138
aF0.231
aF0.154
aF0.0
aF0.152
aF0.292
aF0.138
aF0.138
aF0.169
aF0.182
aF0.231
aF0.138
aF0.0
aF0.2
aa(lp11
S'RF'
p12
aF0.0
aF0.0
aF0.0
aF0.031
aF0.046
aF0.091
aF0.0
aF0.0
aF0.062
aF0.0
aF0.0
aF0.046
aF0.046
aF0.062
aF0.046
aa(lp13
S'LR'
p14
aF0.167
aF0.2
aF0.0
aF0.108
aF0.138
aF0.197
aF0.185
aF0.185
aF0.2
aF0.0
aF0.242
aF0.108
aF0.246
aF0.138
aF0.185
aa(lp15
S'DT'
p16
aF0.0
aF0.046
aF0.138
aF0.0
aF0.077
aF0.061
aF0.092
aF0.077
aF0.062
aF0.0
aF0.0
aF0.046
aF0.046
aF0.0
aF0.0
aasS'False_alarm'
p17
(lp18
(lp19
g6
aF0.167
aF0.308
aF0.154
aF0.0
aF0.2
aF0.0
aF0.262
aF0.262
aF0.138
aF0.0
aF0.212
aF0.2
aF0.138
aF0.246
aF0.0
aa(lp20
g8
aF0.212
aF0.185
aF0.185
aF0.0
aF0.154
aF0.227
aF0.215
aF0.0
aF0.0
aF0.169
aF0.106
aF0.277
aF0.0
aF0.308
aF0.0
aa(lp21
g10
aF0.091
aF0.138
aF0.231
aF0.154
aF0.0
aF0.152
aF0.292
aF0.138
aF0.138
aF0.169
aF0.182
aF0.231
aF0.138
aF0.0
aF0.2
aa(lp22
g12
aF0.0
aF0.0
aF0.0
aF0.031
aF0.046
aF0.091
aF0.0
aF0.0
aF0.062
aF0.0
aF0.0
aF0.046
aF0.046
aF0.062
aF0.046
aa(lp23
g14
aF0.167
aF0.2
aF0.0
aF0.108
aF0.138
aF0.197
aF0.185
aF0.185
aF0.2
aF0.0
aF0.242
aF0.108
aF0.246
aF0.138
aF0.185
aa(lp24
g16
aF0.0
aF0.046
aF0.138
aF0.0
aF0.077
aF0.061
aF0.092
aF0.077
aF0.062
aF0.0
aF0.0
aF0.046
aF0.046
aF0.0
aF0.0
aasS'Recall'
p25
(lp26
(lp27
g6
aF0.333
aF0.333
aF0.333
aF0.0
aF1.0
aF0.0
aF0.667
aF0.667
aF0.5
aF0.0
aF0.667
aF0.667
aF0.667
aF0.5
aF0.0
aa(lp28
g8
aF0.667
aF0.333
aF0.333
aF0.0
aF0.5
aF0.667
aF0.333
aF0.0
aF0.0
aF0.5
aF0.333
aF0.667
aF0.0
aF0.5
aF0.0
aa(lp29
g10
aF0.667
aF0.333
aF0.667
aF0.5
aF0.0
aF0.333
aF0.333
aF0.333
aF0.5
aF0.5
aF0.333
aF0.667
aF0.667
aF0.0
aF1.0
aa(lp30
g12
aF0.0
aF0.0
aF0.0
aF0.5
aF0.5
aF0.667
aF0.0
aF0.0
aF0.5
aF0.0
aF0.0
aF0.333
aF0.333
aF0.5
aF0.5
aa(lp31
g14
aF0.667
aF0.333
aF0.0
aF0.5
aF0.5
aF0.333
aF0.333
aF0.667
aF0.5
aF0.0
aF0.333
aF0.667
aF0.333
aF0.5
aF0.5
aa(lp32
g16
aF0.0
aF0.333
aF0.333
aF0.0
aF0.5
aF0.333
aF0.333
aF0.333
aF0.5
aF0.0
aF0.0
aF0.333
aF0.333
aF0.0
aF0.0
aasS'Precision'
p33
(lp34
(lp35
g6
aF0.083
aF0.048
aF0.091
aF0.0
aF0.133
aF0.0
aF0.105
aF0.105
aF0.1
aF0.0
aF0.125
aF0.133
aF0.182
aF0.059
aF0.0
aa(lp36
g8
aF0.125
aF0.077
aF0.077
aF0.0
aF0.091
aF0.118
aF0.067
aF0.0
aF0.0
aF0.083
aF0.125
aF0.1
aF0.0
aF0.048
aF0.0
aa(lp37
g10
aF0.25
aF0.1
aF0.118
aF0.091
aF0.0
aF0.091
aF0.05
aF0.1
aF0.1
aF0.083
aF0.077
aF0.118
aF0.182
aF0.0
aF0.133
aa(lp38
g12
aF0.0
aF0.0
aF0.0
aF0.333
aF0.25
aF0.25
aF0.0
aF0.0
aF0.2
aF0.0
aF0.0
aF0.25
aF0.25
aF0.2
aF0.25
aa(lp39
g14
aF0.154
aF0.071
aF0.0
aF0.125
aF0.1
aF0.071
aF0.077
aF0.143
aF0.071
aF0.0
aF0.059
aF0.222
aF0.059
aF0.1
aF0.077
aa(lp40
g16
aF0.0
aF0.25
aF0.1
aF0.0
aF0.167
aF0.2
aF0.143
aF0.167
aF0.2
aF0.0
aF0.0
aF0.25
aF0.25
aF0.0
aF0.0
aasS'F_score'
p41
(lp42
(lp43
g6
aF0.133
aF0.083
aF0.143
aF0.0
aF0.235
aF0.0
aF0.182
aF0.182
aF0.167
aF0.0
aF0.211
aF0.222
aF0.286
aF0.105
aF0.0
aa(lp44
g8
aF0.211
aF0.125
aF0.125
aF0.0
aF0.154
aF0.2
aF0.111
aF0.0
aF0.0
aF0.143
aF0.182
aF0.174
aF0.0
aF0.087
aF0.0
aa(lp45
g10
aF0.364
aF0.154
aF0.2
aF0.154
aF0.0
aF0.143
aF0.087
aF0.154
aF0.167
aF0.143
aF0.125
aF0.2
aF0.286
aF0.0
aF0.235
aa(lp46
g12
aF0.0
aF0.0
aF0.0
aF0.4
aF0.333
aF0.364
aF0.0
aF0.0
aF0.286
aF0.0
aF0.0
aF0.286
aF0.286
aF0.286
aF0.333
aa(lp47
g14
aF0.25
aF0.118
aF0.0
aF0.2
aF0.167
aF0.118
aF0.125
aF0.235
aF0.125
aF0.0
aF0.1
aF0.333
aF0.1
aF0.167
aF0.133
aa(lp48
g16
aF0.0
aF0.286
aF0.154
aF0.0
aF0.25
aF0.25
aF0.2
aF0.222
aF0.286
aF0.0
aF0.0
aF0.286
aF0.286
aF0.0
aF0.0
aasS'Accuracy'
p49
(lp50
(lp51
g6
aF0.812
aF0.676
aF0.824
aF0.0
aF0.806
aF0.0
aF0.735
aF0.735
aF0.851
aF0.0
aF0.783
aF0.794
aF0.853
aF0.746
aF0.0
aa(lp52
g8
aF0.783
aF0.794
aF0.794
aF0.0
aF0.836
aF0.768
aF0.765
aF0.0
aF0.0
aF0.821
aF0.87
aF0.721
aF0.0
aF0.687
aF0.0
aa(lp53
g10
aF0.899
aF0.838
aF0.765
aF0.836
aF0.0
aF0.826
aF0.691
aF0.838
aF0.851
aF0.821
aF0.797
aF0.765
aF0.853
aF0.0
aF0.806
aa(lp54
g12
aF0.0
aF0.0
aF0.0
aF0.955
aF0.94
aF0.899
aF0.0
aF0.0
aF0.925
aF0.0
aF0.0
aF0.926
aF0.926
aF0.925
aF0.94
aa(lp55
g14
aF0.826
aF0.779
aF0.0
aF0.881
aF0.851
aF0.783
aF0.794
aF0.809
aF0.791
aF0.0
aF0.739
aF0.882
aF0.735
aF0.851
aF0.806
aa(lp56
g16
aF0.0
aF0.926
aF0.838
aF0.0
aF0.91
aF0.913
aF0.882
aF0.897
aF0.925
aF0.0
aF0.0
aF0.926
aF0.926
aF0.0
aF0.0
aass.