(dp0
S'ivy'
p1
(dp2
S'Recall'
p3
(lp4
(lp5
S'KNN'
p6
aF0.825
aF0.857
aF0.758
aF0.774
aF0.758
aF0.825
aF0.762
aF0.887
aF0.758
aF0.661
aF0.857
aF0.857
aF0.742
aF0.71
aF0.742
aF0.714
aF0.778
aF0.839
aF0.774
aF0.79
aF0.762
aF0.794
aF0.742
aF0.774
aF0.806
aa(lp7
S'SVM'
p8
aF0.905
aF0.921
aF0.774
aF0.855
aF0.742
aF0.857
aF0.81
aF0.806
aF0.839
aF0.903
aF0.841
aF0.905
aF0.806
aF0.774
aF0.855
aF0.778
aF0.825
aF0.806
aF0.806
aF0.871
aF0.73
aF0.873
aF0.823
aF0.79
aF0.823
aa(lp9
S'NB'
p10
aF0.873
aF0.952
aF0.839
aF0.823
aF0.79
aF0.889
aF0.905
aF0.839
aF0.919
aF0.887
aF0.857
aF0.873
aF0.758
aF0.855
aF0.839
aF0.921
aF0.825
aF0.887
aF0.806
aF0.823
aF0.841
aF0.857
aF0.887
aF0.839
aF0.919
aa(lp11
S'RF'
p12
aF0.857
aF0.968
aF0.871
aF0.935
aF0.887
aF0.857
aF0.889
aF0.887
aF0.935
aF0.823
aF0.937
aF0.921
aF0.806
aF0.871
aF0.903
aF0.857
aF0.889
aF0.919
aF0.919
aF0.919
aF0.857
aF0.968
aF0.903
aF0.887
aF0.952
aa(lp13
S'LR'
p14
aF0.889
aF0.937
aF0.758
aF0.823
aF0.726
aF0.873
aF0.81
aF0.806
aF0.855
aF0.855
aF0.857
aF0.841
aF0.79
aF0.79
aF0.839
aF0.889
aF0.873
aF0.79
aF0.774
aF0.855
aF0.714
aF0.873
aF0.839
aF0.806
aF0.871
aa(lp15
S'DT'
p16
aF0.81
aF0.905
aF0.919
aF0.839
aF0.774
aF0.825
aF0.841
aF0.839
aF0.935
aF0.79
aF0.921
aF0.889
aF0.806
aF0.694
aF0.855
aF0.905
aF0.841
aF0.871
aF0.855
aF0.823
aF0.794
aF0.825
aF0.806
aF0.79
aF0.855
aasS'Precision'
p17
(lp18
(lp19
g6
aF0.929
aF0.915
aF0.922
aF0.98
aF0.959
aF0.929
aF0.96
aF0.948
aF0.959
aF0.953
aF0.964
aF1.0
aF0.979
aF0.917
aF0.958
aF1.0
aF0.942
aF0.945
aF0.941
aF0.98
aF0.96
aF0.962
aF0.958
aF0.96
aF0.943
aa(lp20
g8
aF0.934
aF0.951
aF0.98
aF0.964
aF0.939
aF0.931
aF0.962
aF0.962
aF0.963
aF0.933
aF0.964
aF0.934
aF0.909
aF0.923
aF0.93
aF0.961
aF0.929
aF0.962
aF0.943
aF0.947
aF0.939
aF0.965
aF0.944
aF0.942
aF0.944
aa(lp21
g10
aF0.917
aF0.923
aF0.963
aF0.944
aF0.925
aF0.903
aF0.95
aF0.963
aF0.919
aF0.932
aF0.915
aF0.948
aF0.904
aF0.914
aF0.897
aF0.921
aF0.929
aF0.932
aF0.926
aF0.944
aF0.883
aF0.931
aF0.948
aF0.929
aF0.905
aa(lp22
g12
aF0.915
aF0.924
aF0.931
aF0.951
aF0.917
aF0.931
aF0.933
aF0.932
aF0.906
aF0.895
aF0.922
aF0.906
aF0.926
aF0.9
aF0.933
aF0.947
aF0.966
aF0.919
aF0.966
aF0.905
aF0.915
aF0.924
aF0.903
aF0.932
aF0.937
aa(lp23
g14
aF0.933
aF0.937
aF0.959
aF0.962
aF0.938
aF0.917
aF0.962
aF0.962
aF0.946
aF0.93
aF0.947
aF0.964
aF0.907
aF0.925
aF0.929
aF0.966
aF0.932
aF0.961
aF0.941
aF0.946
aF0.938
aF0.965
aF0.945
aF0.943
aF0.931
aa(lp24
g16
aF0.927
aF0.95
aF0.891
aF0.929
aF0.889
aF0.912
aF0.946
aF0.945
aF0.892
aF0.925
aF0.921
aF0.933
aF0.926
aF0.878
aF0.93
aF0.934
aF0.914
aF0.885
aF0.898
aF0.927
aF0.926
aF0.897
aF0.926
aF0.891
aF0.93
aasS'F_score'
p25
(lp26
(lp27
g6
aF0.874
aF0.885
aF0.832
aF0.865
aF0.847
aF0.874
aF0.85
aF0.917
aF0.847
aF0.781
aF0.908
aF0.923
aF0.844
aF0.8
aF0.836
aF0.833
aF0.852
aF0.889
aF0.85
aF0.875
aF0.85
aF0.87
aF0.836
aF0.857
aF0.87
aa(lp28
g8
aF0.919
aF0.935
aF0.865
aF0.906
aF0.829
aF0.893
aF0.879
aF0.877
aF0.897
aF0.918
aF0.898
aF0.919
aF0.855
aF0.842
aF0.891
aF0.86
aF0.874
aF0.877
aF0.87
aF0.908
aF0.821
aF0.917
aF0.879
aF0.86
aF0.879
aa(lp29
g10
aF0.894
aF0.938
aF0.897
aF0.879
aF0.852
aF0.896
aF0.927
aF0.897
aF0.919
aF0.909
aF0.885
aF0.909
aF0.825
aF0.883
aF0.867
aF0.921
aF0.874
aF0.909
aF0.862
aF0.879
aF0.862
aF0.893
aF0.917
aF0.881
aF0.912
aa(lp30
g12
aF0.885
aF0.946
aF0.9
aF0.943
aF0.902
aF0.893
aF0.911
aF0.909
aF0.921
aF0.857
aF0.929
aF0.913
aF0.862
aF0.885
aF0.918
aF0.9
aF0.926
aF0.919
aF0.942
aF0.912
aF0.885
aF0.946
aF0.903
aF0.909
aF0.944
aa(lp31
g14
aF0.911
aF0.937
aF0.847
aF0.887
aF0.818
aF0.894
aF0.879
aF0.877
aF0.898
aF0.891
aF0.9
aF0.898
aF0.845
aF0.852
aF0.881
aF0.926
aF0.902
aF0.867
aF0.85
aF0.898
aF0.811
aF0.917
aF0.889
aF0.87
aF0.9
aa(lp32
g16
aF0.864
aF0.927
aF0.905
aF0.881
aF0.828
aF0.867
aF0.891
aF0.889
aF0.913
aF0.852
aF0.921
aF0.911
aF0.862
aF0.775
aF0.891
aF0.919
aF0.876
aF0.878
aF0.876
aF0.872
aF0.855
aF0.86
aF0.862
aF0.838
aF0.891
aasS'Accuracy'
p33
(lp34
(lp35
g6
aF0.789
aF0.803
aF0.729
aF0.786
aF0.757
aF0.789
aF0.761
aF0.857
aF0.757
aF0.671
aF0.845
aF0.873
aF0.757
aF0.686
aF0.743
aF0.746
aF0.761
aF0.814
aF0.757
aF0.8
aF0.761
aF0.789
aF0.743
aF0.771
aF0.786
aa(lp36
g8
aF0.859
aF0.887
aF0.786
aF0.843
aF0.729
aF0.817
aF0.803
aF0.8
aF0.829
aF0.857
aF0.831
aF0.859
aF0.757
aF0.743
aF0.814
aF0.775
aF0.789
aF0.8
aF0.786
aF0.843
aF0.718
aF0.859
aF0.8
aF0.771
aF0.8
aa(lp37
g10
aF0.817
aF0.887
aF0.829
aF0.8
aF0.757
aF0.817
aF0.873
aF0.829
aF0.857
aF0.843
aF0.803
aF0.845
aF0.714
aF0.8
aF0.771
aF0.859
aF0.789
aF0.843
aF0.771
aF0.8
aF0.761
aF0.817
aF0.857
aF0.8
aF0.843
aa(lp38
g12
aF0.803
aF0.901
aF0.829
aF0.9
aF0.829
aF0.817
aF0.845
aF0.843
aF0.857
aF0.757
aF0.873
aF0.845
aF0.771
aF0.8
aF0.857
aF0.831
aF0.873
aF0.857
aF0.9
aF0.843
aF0.803
aF0.901
aF0.829
aF0.843
aF0.9
aa(lp39
g14
aF0.845
aF0.887
aF0.757
aF0.814
aF0.714
aF0.817
aF0.803
aF0.8
aF0.829
aF0.814
aF0.831
aF0.831
aF0.743
aF0.757
aF0.8
aF0.873
aF0.831
aF0.786
aF0.757
aF0.829
aF0.704
aF0.859
aF0.814
aF0.786
aF0.829
aa(lp40
g16
aF0.775
aF0.873
aF0.829
aF0.8
aF0.714
aF0.775
aF0.817
aF0.814
aF0.843
aF0.757
aF0.859
aF0.845
aF0.771
aF0.643
aF0.814
aF0.859
aF0.789
aF0.786
aF0.786
aF0.786
aF0.761
aF0.761
aF0.771
aF0.729
aF0.814
aass.