(dp0
S'jedit'
p1
(dp2
S'AUC'
p3
(lp4
(lp5
S'KNN'
p6
aF0.268
aF0.24
aF0.177
aF0.083
aF0.292
aF0.268
aF0.156
aF0.25
aF0.146
aF0.177
aF0.216
aF0.208
aF0.0
aF0.188
aF0.198
aa(lp7
S'SVM'
p8
aF0.0
aF0.24
aF0.198
aF0.156
aF0.26
aF0.144
aF0.208
aF0.0
aF0.219
aF0.302
aF0.103
aF0.0
aF0.146
aF0.24
aF0.156
aa(lp9
S'NB'
p10
aF0.0
aF0.198
aF0.75
aF0.0
aF0.0
aF0.134
aF0.708
aF0.083
aF0.0
aF0.104
aF0.134
aF0.427
aF0.0
aF0.0
aF0.0
aa(lp11
S'RF'
p12
aF0.062
aF0.0
aF0.104
aF0.021
aF0.031
aF0.01
aF0.083
aF0.094
aF0.0
aF0.0
aF0.062
aF0.0
aF0.031
aF0.042
aF0.0
aa(lp13
S'LR'
p14
aF0.072
aF0.229
aF0.0
aF0.0
aF0.0
aF0.0
aF0.0
aF0.0
aF0.0
aF0.198
aF0.144
aF0.219
aF0.0
aF0.177
aF0.094
aa(lp15
S'DT'
p16
aF0.082
aF0.0
aF0.104
aF0.083
aF0.083
aF0.041
aF0.146
aF0.0
aF0.063
aF0.0
aF0.082
aF0.0
aF0.0
aF0.083
aF0.052
aasS'False_alarm'
p17
(lp18
(lp19
g6
aF0.268
aF0.24
aF0.177
aF0.083
aF0.292
aF0.268
aF0.156
aF0.25
aF0.146
aF0.177
aF0.216
aF0.208
aF0.0
aF0.188
aF0.198
aa(lp20
g8
aF0.0
aF0.24
aF0.198
aF0.156
aF0.26
aF0.144
aF0.208
aF0.0
aF0.219
aF0.302
aF0.103
aF0.0
aF0.146
aF0.24
aF0.156
aa(lp21
g10
aF0.0
aF0.198
aF0.75
aF0.0
aF0.0
aF0.134
aF0.708
aF0.083
aF0.0
aF0.104
aF0.134
aF0.427
aF0.0
aF0.0
aF0.0
aa(lp22
g12
aF0.062
aF0.0
aF0.104
aF0.021
aF0.031
aF0.01
aF0.083
aF0.094
aF0.0
aF0.0
aF0.062
aF0.0
aF0.031
aF0.042
aF0.0
aa(lp23
g14
aF0.072
aF0.229
aF0.0
aF0.0
aF0.0
aF0.0
aF0.0
aF0.0
aF0.0
aF0.198
aF0.144
aF0.219
aF0.0
aF0.177
aF0.094
aa(lp24
g16
aF0.082
aF0.0
aF0.104
aF0.083
aF0.083
aF0.041
aF0.146
aF0.0
aF0.063
aF0.0
aF0.082
aF0.0
aF0.0
aF0.083
aF0.052
aasS'Recall'
p25
(lp26
(lp27
g6
aF0.667
aF0.5
aF1.0
aF0.5
aF0.5
aF0.667
aF0.5
aF1.0
aF0.5
aF0.5
aF0.333
aF0.5
aF0.0
aF1.0
aF0.5
aa(lp28
g8
aF0.0
aF0.5
aF1.0
aF0.5
aF0.5
aF0.333
aF1.0
aF0.0
aF0.5
aF1.0
aF0.333
aF0.0
aF0.5
aF0.5
aF0.5
aa(lp29
g10
aF0.0
aF0.5
aF0.5
aF0.0
aF0.0
aF0.333
aF1.0
aF0.5
aF0.0
aF0.5
aF0.333
aF1.0
aF0.0
aF0.0
aF0.0
aa(lp30
g12
aF0.333
aF0.0
aF0.5
aF0.5
aF0.5
aF0.667
aF0.5
aF1.0
aF0.0
aF0.0
aF0.333
aF0.0
aF0.5
aF1.0
aF0.0
aa(lp31
g14
aF0.333
aF0.5
aF0.0
aF0.0
aF0.0
aF0.0
aF0.0
aF0.0
aF0.0
aF1.0
aF0.667
aF0.5
aF0.0
aF1.0
aF1.0
aa(lp32
g16
aF0.333
aF0.0
aF1.0
aF1.0
aF0.5
aF0.667
aF0.5
aF0.0
aF0.5
aF0.0
aF0.667
aF0.0
aF0.0
aF0.5
aF0.5
aasS'Precision'
p33
(lp34
(lp35
g6
aF0.071
aF0.042
aF0.105
aF0.111
aF0.034
aF0.071
aF0.063
aF0.077
aF0.067
aF0.056
aF0.045
aF0.048
aF0.0
aF0.1
aF0.05
aa(lp36
g8
aF0.0
aF0.042
aF0.095
aF0.063
aF0.038
aF0.067
aF0.091
aF0.0
aF0.045
aF0.065
aF0.091
aF0.0
aF0.067
aF0.042
aF0.063
aa(lp37
g10
aF0.0
aF0.05
aF0.014
aF0.0
aF0.0
aF0.071
aF0.029
aF0.111
aF0.0
aF0.091
aF0.071
aF0.047
aF0.0
aF0.0
aF0.0
aa(lp38
g12
aF0.143
aF0.0
aF0.091
aF0.333
aF0.25
aF0.667
aF0.111
aF0.182
aF0.0
aF0.0
aF0.143
aF0.0
aF0.25
aF0.333
aF0.0
aa(lp39
g14
aF0.125
aF0.043
aF0.0
aF0.0
aF0.0
aF0.0
aF0.0
aF0.0
aF0.0
aF0.095
aF0.125
aF0.045
aF0.0
aF0.105
aF0.182
aa(lp40
g16
aF0.111
aF0.0
aF0.167
aF0.2
aF0.111
aF0.333
aF0.067
aF0.0
aF0.143
aF0.0
aF0.2
aF0.0
aF0.0
aF0.111
aF0.167
aasS'F_score'
p41
(lp42
(lp43
g6
aF0.129
aF0.077
aF0.19
aF0.182
aF0.065
aF0.129
aF0.111
aF0.143
aF0.118
aF0.1
aF0.08
aF0.087
aF0.0
aF0.182
aF0.091
aa(lp44
g8
aF0.0
aF0.077
aF0.174
aF0.111
aF0.071
aF0.111
aF0.167
aF0.0
aF0.083
aF0.121
aF0.143
aF0.0
aF0.118
aF0.077
aF0.111
aa(lp45
g10
aF0.0
aF0.091
aF0.027
aF0.0
aF0.0
aF0.118
aF0.056
aF0.182
aF0.0
aF0.154
aF0.118
aF0.089
aF0.0
aF0.0
aF0.0
aa(lp46
g12
aF0.2
aF0.0
aF0.154
aF0.4
aF0.333
aF0.667
aF0.182
aF0.308
aF0.0
aF0.0
aF0.2
aF0.0
aF0.333
aF0.5
aF0.0
aa(lp47
g14
aF0.182
aF0.08
aF0.0
aF0.0
aF0.0
aF0.0
aF0.0
aF0.0
aF0.0
aF0.174
aF0.211
aF0.083
aF0.0
aF0.19
aF0.308
aa(lp48
g16
aF0.167
aF0.0
aF0.286
aF0.333
aF0.182
aF0.444
aF0.118
aF0.0
aF0.222
aF0.0
aF0.308
aF0.0
aF0.0
aF0.182
aF0.25
aasS'Accuracy'
p49
(lp50
(lp51
g6
aF0.73
aF0.755
aF0.827
aF0.908
aF0.704
aF0.73
aF0.837
aF0.755
aF0.847
aF0.816
aF0.77
aF0.786
aF0.0
aF0.816
aF0.796
aa(lp52
g8
aF0.0
aF0.755
aF0.806
aF0.837
aF0.735
aF0.84
aF0.796
aF0.0
aF0.776
aF0.704
aF0.88
aF0.0
aF0.847
aF0.755
aF0.837
aa(lp53
g10
aF0.0
aF0.796
aF0.255
aF0.0
aF0.0
aF0.85
aF0.306
aF0.908
aF0.0
aF0.888
aF0.85
aF0.582
aF0.0
aF0.0
aF0.0
aa(lp54
g12
aF0.92
aF0.0
aF0.888
aF0.969
aF0.959
aF0.98
aF0.908
aF0.908
aF0.0
aF0.0
aF0.92
aF0.0
aF0.959
aF0.959
aF0.0
aa(lp55
g14
aF0.91
aF0.765
aF0.0
aF0.0
aF0.0
aF0.0
aF0.0
aF0.0
aF0.0
aF0.806
aF0.85
aF0.776
aF0.0
aF0.827
aF0.908
aa(lp56
g16
aF0.9
aF0.0
aF0.898
aF0.918
aF0.908
aF0.95
aF0.847
aF0.0
aF0.929
aF0.0
aF0.91
aF0.0
aF0.0
aF0.908
aF0.939
aass.