(dp0
S'jedit'
p1
(dp2
S'Recall'
p3
(lp4
(lp5
S'KNN'
p6
aF0.753
aF0.76
aF0.792
aF0.76
aF0.771
aF0.701
aF0.74
aF0.667
aF0.854
aF0.75
aF0.804
aF0.74
aF0.802
aF0.813
aF0.823
aF0.835
aF0.698
aF0.844
aF0.781
aF0.792
aF0.814
aF0.74
aF0.771
aF0.802
aF0.823
aa(lp7
S'SVM'
p8
aF0.948
aF0.865
aF0.625
aF0.719
aF0.75
aF0.814
aF0.75
aF0.802
aF0.802
aF0.76
aF0.928
aF0.698
aF0.792
aF0.75
aF0.854
aF0.866
aF0.813
aF0.771
aF0.792
aF0.719
aF0.825
aF0.833
aF0.833
aF0.917
aF0.802
aa(lp9
S'NB'
p10
aF0.959
aF0.896
aF0.875
aF0.302
aF0.865
aF0.701
aF0.906
aF0.656
aF0.917
aF0.344
aF0.691
aF0.677
aF0.51
aF0.302
aF0.875
aF0.866
aF0.448
aF0.917
aF0.969
aF0.365
aF0.825
aF0.844
aF0.323
aF0.354
aF0.542
aa(lp11
S'RF'
p12
aF0.938
aF0.927
aF0.938
aF0.938
aF0.969
aF0.918
aF0.906
aF0.969
aF0.958
aF0.958
aF0.99
aF0.938
aF0.927
aF0.979
aF0.948
aF0.959
aF0.896
aF0.969
aF0.938
aF0.969
aF0.938
aF0.938
aF0.979
aF0.969
aF0.938
aa(lp13
S'LR'
p14
aF0.959
aF0.823
aF0.708
aF0.688
aF0.792
aF0.835
aF0.781
aF0.802
aF0.844
aF0.802
aF0.938
aF0.76
aF0.771
aF0.74
aF0.854
aF0.876
aF0.792
aF0.792
aF0.844
aF0.781
aF0.845
aF0.833
aF0.802
aF0.875
aF0.802
aa(lp15
S'DT'
p16
aF0.897
aF0.927
aF0.958
aF0.948
aF0.948
aF0.959
aF0.854
aF0.917
aF0.906
aF0.979
aF0.969
aF0.927
aF0.948
aF0.927
aF0.927
aF0.959
aF0.833
aF0.938
aF0.917
aF0.958
aF0.835
aF0.885
aF0.917
aF0.948
aF0.927
aasS'Precision'
p17
(lp18
(lp19
g6
aF0.986
aF0.973
aF0.987
aF0.986
aF1.0
aF0.986
aF0.986
aF0.985
aF0.988
aF1.0
aF1.0
aF0.986
aF0.987
aF0.987
aF0.988
aF0.976
aF1.0
aF0.988
aF0.987
aF1.0
aF0.988
aF1.0
aF0.987
aF0.987
aF0.975
aa(lp20
g8
aF0.968
aF0.976
aF1.0
aF0.986
aF1.0
aF0.988
aF0.986
aF1.0
aF0.987
aF0.986
aF0.968
aF1.0
aF0.987
aF1.0
aF0.976
aF0.977
aF1.0
aF0.987
aF1.0
aF0.986
aF0.976
aF0.976
aF1.0
aF0.978
aF0.975
aa(lp21
g10
aF0.969
aF0.977
aF0.988
aF0.967
aF0.988
aF0.971
aF1.0
aF0.984
aF0.978
aF0.971
aF0.957
aF0.985
aF1.0
aF0.967
aF0.977
aF0.966
aF0.977
aF1.0
aF0.979
aF0.972
aF0.976
aF0.976
aF0.969
aF0.971
aF0.963
aa(lp22
g12
aF1.0
aF0.978
aF0.989
aF0.978
aF1.0
aF0.978
aF0.989
aF0.989
aF0.989
aF0.989
aF0.97
aF0.989
aF0.989
aF0.979
aF0.989
aF0.979
aF1.0
aF0.989
aF0.989
aF0.989
aF0.989
aF1.0
aF0.979
aF0.979
aF0.978
aa(lp23
g14
aF0.969
aF0.975
aF1.0
aF0.985
aF1.0
aF0.988
aF0.987
aF1.0
aF0.988
aF0.987
aF0.968
aF1.0
aF0.987
aF1.0
aF0.976
aF0.977
aF1.0
aF0.987
aF1.0
aF0.987
aF0.976
aF0.976
aF1.0
aF0.977
aF0.975
aa(lp24
g16
aF0.989
aF0.978
aF0.989
aF0.978
aF1.0
aF0.979
aF0.976
aF0.989
aF0.989
aF0.989
aF0.979
aF0.989
aF0.978
aF0.978
aF0.989
aF0.979
aF0.988
aF0.978
aF1.0
aF0.989
aF0.988
aF1.0
aF0.989
aF0.978
aF0.989
aasS'F_score'
p25
(lp26
(lp27
g6
aF0.854
aF0.854
aF0.879
aF0.859
aF0.871
aF0.819
aF0.845
aF0.795
aF0.916
aF0.857
aF0.891
aF0.845
aF0.885
aF0.891
aF0.898
aF0.9
aF0.822
aF0.91
aF0.872
aF0.884
aF0.893
aF0.85
aF0.865
aF0.885
aF0.893
aa(lp28
g8
aF0.958
aF0.917
aF0.769
aF0.831
aF0.857
aF0.893
aF0.852
aF0.89
aF0.885
aF0.859
aF0.947
aF0.822
aF0.879
aF0.857
aF0.911
aF0.918
aF0.897
aF0.865
aF0.884
aF0.831
aF0.894
aF0.899
aF0.909
aF0.946
aF0.88
aa(lp29
g10
aF0.964
aF0.935
aF0.928
aF0.46
aF0.922
aF0.814
aF0.951
aF0.787
aF0.946
aF0.508
aF0.802
aF0.802
aF0.676
aF0.46
aF0.923
aF0.913
aF0.614
aF0.957
aF0.974
aF0.53
aF0.894
aF0.905
aF0.484
aF0.519
aF0.693
aa(lp30
g12
aF0.968
aF0.952
aF0.963
aF0.957
aF0.984
aF0.947
aF0.946
aF0.979
aF0.974
aF0.974
aF0.98
aF0.963
aF0.957
aF0.979
aF0.968
aF0.969
aF0.945
aF0.979
aF0.963
aF0.979
aF0.963
aF0.968
aF0.979
aF0.974
aF0.957
aa(lp31
g14
aF0.964
aF0.893
aF0.829
aF0.81
aF0.884
aF0.905
aF0.872
aF0.89
aF0.91
aF0.885
aF0.953
aF0.864
aF0.865
aF0.85
aF0.911
aF0.924
aF0.884
aF0.879
aF0.915
aF0.872
aF0.906
aF0.899
aF0.89
aF0.923
aF0.88
aa(lp32
g16
aF0.941
aF0.952
aF0.974
aF0.963
aF0.973
aF0.969
aF0.911
aF0.951
aF0.946
aF0.984
aF0.974
aF0.957
aF0.963
aF0.952
aF0.957
aF0.969
aF0.904
aF0.957
aF0.957
aF0.974
aF0.905
aF0.939
aF0.951
aF0.963
aF0.957
aasS'Accuracy'
p33
(lp34
(lp35
g6
aF0.75
aF0.745
aF0.786
aF0.755
aF0.776
aF0.7
aF0.735
aF0.663
aF0.847
aF0.755
aF0.81
aF0.735
aF0.796
aF0.806
aF0.816
aF0.82
aF0.704
aF0.837
aF0.776
aF0.796
aF0.81
aF0.745
aF0.765
aF0.796
aF0.806
aa(lp36
g8
aF0.92
aF0.847
aF0.633
aF0.714
aF0.755
aF0.81
aF0.745
aF0.806
aF0.796
aF0.755
aF0.9
aF0.704
aF0.786
aF0.755
aF0.837
aF0.85
aF0.816
aF0.765
aF0.796
aF0.714
aF0.81
aF0.816
aF0.837
aF0.898
aF0.786
aa(lp37
g10
aF0.93
aF0.878
aF0.867
aF0.306
aF0.857
aF0.69
aF0.908
aF0.653
aF0.898
aF0.347
aF0.67
aF0.673
aF0.52
aF0.306
aF0.857
aF0.84
aF0.449
aF0.918
aF0.949
aF0.367
aF0.81
aF0.827
aF0.327
aF0.357
aF0.531
aa(lp38
g12
aF0.94
aF0.908
aF0.929
aF0.918
aF0.969
aF0.9
aF0.898
aF0.959
aF0.949
aF0.949
aF0.96
aF0.929
aF0.918
aF0.959
aF0.939
aF0.94
aF0.898
aF0.959
aF0.929
aF0.959
aF0.93
aF0.939
aF0.959
aF0.949
aF0.918
aa(lp39
g14
aF0.93
aF0.806
aF0.714
aF0.684
aF0.796
aF0.83
aF0.776
aF0.806
aF0.837
aF0.796
aF0.91
aF0.765
aF0.765
aF0.745
aF0.837
aF0.86
aF0.796
aF0.786
aF0.847
aF0.776
aF0.83
aF0.816
aF0.806
aF0.857
aF0.786
aa(lp40
g16
aF0.89
aF0.908
aF0.949
aF0.929
aF0.949
aF0.94
aF0.837
aF0.908
aF0.898
aF0.969
aF0.95
aF0.918
aF0.929
aF0.908
aF0.918
aF0.94
aF0.827
aF0.918
aF0.918
aF0.949
aF0.83
aF0.888
aF0.908
aF0.929
aF0.918
aass.