(dp0
S'poi'
p1
(dp2
S'Recall'
p3
(lp4
(lp5
S'KNN'
p6
aF0.818
aF0.813
aF0.781
aF0.813
aF0.844
aF0.879
aF0.844
aF0.781
aF0.906
aF0.75
aF0.727
aF0.875
aF0.969
aF0.75
aF0.688
aF0.818
aF0.813
aF0.938
aF0.719
aF0.719
aF0.909
aF0.719
aF0.719
aF0.781
aF0.875
aa(lp7
S'SVM'
p8
aF0.788
aF0.813
aF0.781
aF0.781
aF0.75
aF0.788
aF0.906
aF0.813
aF0.813
aF0.688
aF0.788
aF0.813
aF0.781
aF0.656
aF0.688
aF0.818
aF0.938
aF0.844
aF0.844
aF0.719
aF0.879
aF0.656
aF0.781
aF0.781
aF0.875
aa(lp9
S'NB'
p10
aF0.909
aF0.906
aF0.906
aF0.781
aF0.813
aF0.97
aF0.875
aF0.875
aF0.844
aF0.781
aF0.818
aF0.938
aF0.813
aF0.906
aF0.875
aF0.879
aF0.969
aF0.875
aF0.875
aF0.781
aF0.909
aF0.906
aF0.844
aF0.844
aF0.906
aa(lp11
S'RF'
p12
aF0.667
aF0.594
aF0.688
aF0.688
aF0.656
aF0.576
aF0.781
aF0.688
aF0.719
aF0.594
aF0.606
aF0.594
aF0.719
aF0.531
aF0.719
aF0.727
aF0.781
aF0.781
aF0.625
aF0.719
aF0.788
aF0.625
aF0.594
aF0.719
aF0.688
aa(lp13
S'LR'
p14
aF0.727
aF0.781
aF0.719
aF0.75
aF0.688
aF0.727
aF0.844
aF0.813
aF0.75
aF0.719
aF0.788
aF0.813
aF0.75
aF0.594
aF0.688
aF0.818
aF0.844
aF0.844
aF0.813
aF0.688
aF0.879
aF0.625
aF0.75
aF0.813
aF0.844
aa(lp15
S'DT'
p16
aF0.515
aF0.5
aF0.625
aF0.5
aF0.531
aF0.515
aF0.656
aF0.594
aF0.469
aF0.625
aF0.545
aF0.438
aF0.625
aF0.406
aF0.5
aF0.576
aF0.688
aF0.594
aF0.469
aF0.563
aF0.636
aF0.656
aF0.5
aF0.656
aF0.625
aasS'Precision'
p17
(lp18
(lp19
g6
aF0.675
aF0.591
aF0.532
aF0.52
aF0.692
aF0.58
aF0.587
aF0.676
aF0.617
aF0.511
aF0.5
aF0.596
aF0.66
aF0.558
aF0.595
aF0.643
aF0.578
aF0.612
aF0.561
aF0.561
aF0.667
aF0.697
aF0.575
aF0.625
aF0.596
aa(lp20
g8
aF0.619
aF0.667
aF0.556
aF0.595
aF0.706
aF0.619
aF0.63
aF0.65
aF0.684
aF0.524
aF0.619
aF0.703
aF0.676
aF0.583
aF0.647
aF0.692
aF0.667
aF0.6
aF0.587
aF0.657
aF0.763
aF0.568
aF0.658
aF0.676
aF0.596
aa(lp21
g10
aF0.476
aF0.537
aF0.453
aF0.397
aF0.413
aF0.478
aF0.438
aF0.424
aF0.415
aF0.431
aF0.397
aF0.435
aF0.481
aF0.433
aF0.444
aF0.5
aF0.449
aF0.418
aF0.459
aF0.403
aF0.526
aF0.492
aF0.443
aF0.435
aF0.426
aa(lp22
g12
aF0.688
aF0.792
aF0.667
aF0.733
aF0.724
aF0.613
aF0.806
aF0.846
aF0.719
aF0.594
aF0.606
aF0.76
aF0.793
aF0.708
aF0.639
aF0.75
aF0.758
aF0.862
aF0.645
aF0.676
aF0.788
aF0.769
aF0.731
aF0.719
aF0.667
aa(lp23
g14
aF0.6
aF0.694
aF0.561
aF0.6
aF0.667
aF0.632
aF0.628
aF0.634
aF0.667
aF0.561
aF0.591
aF0.722
aF0.706
aF0.559
aF0.629
aF0.692
aF0.692
aF0.551
aF0.605
aF0.629
aF0.763
aF0.571
aF0.632
aF0.703
aF0.614
aa(lp24
g16
aF0.607
aF0.696
aF0.625
aF0.552
aF0.773
aF0.708
aF0.618
aF0.792
aF0.682
aF0.69
aF0.643
aF0.778
aF0.741
aF0.619
aF0.533
aF0.679
aF0.786
aF0.704
aF0.577
aF0.783
aF0.724
aF0.778
aF0.727
aF0.75
aF0.69
aasS'F_score'
p25
(lp26
(lp27
g6
aF0.74
aF0.684
aF0.633
aF0.634
aF0.761
aF0.699
aF0.692
aF0.725
aF0.734
aF0.608
aF0.593
aF0.709
aF0.785
aF0.64
aF0.638
aF0.72
aF0.675
aF0.741
aF0.63
aF0.63
aF0.769
aF0.708
aF0.639
aF0.694
aF0.709
aa(lp28
g8
aF0.693
aF0.732
aF0.649
aF0.676
aF0.727
aF0.693
aF0.744
aF0.722
aF0.743
aF0.595
aF0.693
aF0.754
aF0.725
aF0.618
aF0.667
aF0.75
aF0.779
aF0.701
aF0.692
aF0.687
aF0.817
aF0.609
aF0.714
aF0.725
aF0.709
aa(lp29
g10
aF0.625
aF0.674
aF0.604
aF0.526
aF0.547
aF0.64
aF0.583
aF0.571
aF0.557
aF0.556
aF0.535
aF0.594
aF0.605
aF0.586
aF0.589
aF0.637
aF0.614
aF0.566
aF0.602
aF0.532
aF0.667
aF0.637
aF0.581
aF0.574
aF0.58
aa(lp30
g12
aF0.677
aF0.679
aF0.677
aF0.71
aF0.689
aF0.594
aF0.794
aF0.759
aF0.719
aF0.594
aF0.606
aF0.667
aF0.754
aF0.607
aF0.676
aF0.738
aF0.769
aF0.82
aF0.635
aF0.697
aF0.788
aF0.69
aF0.655
aF0.719
aF0.677
aa(lp31
g14
aF0.658
aF0.735
aF0.63
aF0.667
aF0.677
aF0.676
aF0.72
aF0.712
aF0.706
aF0.63
aF0.675
aF0.765
aF0.727
aF0.576
aF0.657
aF0.75
aF0.761
aF0.667
aF0.693
aF0.657
aF0.817
aF0.597
aF0.686
aF0.754
aF0.711
aa(lp32
g16
aF0.557
aF0.582
aF0.625
aF0.525
aF0.63
aF0.596
aF0.636
aF0.679
aF0.556
aF0.656
aF0.59
aF0.56
aF0.678
aF0.491
aF0.516
aF0.623
aF0.733
aF0.644
aF0.517
aF0.655
aF0.677
aF0.712
aF0.593
aF0.7
aF0.656
aasS'Accuracy'
p33
(lp34
(lp35
g6
aF0.789
aF0.727
aF0.67
aF0.659
aF0.807
aF0.722
aF0.727
aF0.784
aF0.761
aF0.648
aF0.633
aF0.739
aF0.807
aF0.693
aF0.716
aF0.767
aF0.716
aF0.761
aF0.693
aF0.693
aF0.8
aF0.784
aF0.705
aF0.75
aF0.739
aa(lp36
g8
aF0.744
aF0.784
aF0.693
aF0.727
aF0.795
aF0.744
aF0.773
aF0.773
aF0.795
aF0.659
aF0.744
aF0.807
aF0.784
aF0.705
aF0.75
aF0.8
aF0.807
aF0.739
aF0.727
aF0.761
aF0.856
aF0.693
aF0.773
aF0.784
aF0.739
aa(lp37
g10
aF0.6
aF0.682
aF0.568
aF0.489
aF0.511
aF0.6
aF0.545
aF0.523
aF0.511
aF0.545
aF0.478
aF0.534
aF0.614
aF0.534
aF0.557
aF0.633
aF0.557
aF0.511
aF0.58
aF0.5
aF0.667
aF0.625
aF0.557
aF0.545
aF0.523
aa(lp38
g12
aF0.767
aF0.795
aF0.761
aF0.795
aF0.784
aF0.711
aF0.852
aF0.841
aF0.795
aF0.705
aF0.711
aF0.784
aF0.83
aF0.75
aF0.75
aF0.811
aF0.83
aF0.875
aF0.739
aF0.773
aF0.844
aF0.795
aF0.773
aF0.795
aF0.761
aa(lp39
g14
aF0.722
aF0.795
aF0.693
aF0.727
aF0.761
aF0.744
aF0.761
aF0.761
aF0.773
aF0.693
aF0.722
aF0.818
aF0.795
aF0.682
aF0.739
aF0.8
aF0.807
aF0.693
aF0.739
aF0.739
aF0.856
aF0.693
aF0.75
aF0.807
aF0.75
aa(lp40
g16
aF0.7
aF0.739
aF0.727
aF0.67
aF0.773
aF0.744
aF0.727
aF0.795
aF0.727
aF0.761
aF0.722
aF0.75
aF0.784
aF0.693
aF0.659
aF0.744
aF0.818
aF0.761
aF0.682
aF0.784
aF0.778
aF0.807
aF0.75
aF0.795
aF0.761
aass.