(dp0
S'prop'
p1
(dp2
S'AUC'
p3
(lp4
(lp5
S'KNN'
p6
aF0.227
aF0.227
aF0.227
aF0.286
aF0.271
aF0.227
aF0.235
aF0.235
aF0.244
aF0.331
aF0.336
aF0.185
aF0.252
aF0.261
aF0.263
aa(lp7
S'SVM'
p8
aF0.294
aF0.294
aF0.277
aF0.378
aF0.28
aF0.185
aF0.286
aF0.328
aF0.462
aF0.186
aF0.311
aF0.378
aF0.261
aF0.311
aF0.212
aa(lp9
S'NB'
p10
aF0.723
aF0.655
aF0.479
aF0.681
aF0.737
aF0.664
aF0.647
aF0.731
aF0.672
aF0.686
aF0.723
aF0.714
aF0.529
aF0.689
aF0.695
aa(lp11
S'RF'
p12
aF0.101
aF0.059
aF0.109
aF0.118
aF0.042
aF0.076
aF0.042
aF0.059
aF0.067
aF0.102
aF0.05
aF0.109
aF0.109
aF0.0
aF0.093
aa(lp13
S'LR'
p14
aF0.294
aF0.252
aF0.277
aF0.319
aF0.297
aF0.328
aF0.244
aF0.345
aF0.361
aF0.271
aF0.277
aF0.311
aF0.193
aF0.261
aF0.271
aa(lp15
S'DT'
p16
aF0.109
aF0.067
aF0.126
aF0.143
aF0.169
aF0.067
aF0.118
aF0.067
aF0.143
aF0.068
aF0.0
aF0.118
aF0.109
aF0.092
aF0.11
aasS'False_alarm'
p17
(lp18
(lp19
g6
aF0.227
aF0.227
aF0.227
aF0.286
aF0.271
aF0.227
aF0.235
aF0.235
aF0.244
aF0.331
aF0.336
aF0.185
aF0.252
aF0.261
aF0.263
aa(lp20
g8
aF0.294
aF0.294
aF0.277
aF0.378
aF0.28
aF0.185
aF0.286
aF0.328
aF0.462
aF0.186
aF0.311
aF0.378
aF0.261
aF0.311
aF0.212
aa(lp21
g10
aF0.723
aF0.655
aF0.479
aF0.681
aF0.737
aF0.664
aF0.647
aF0.731
aF0.672
aF0.686
aF0.723
aF0.714
aF0.529
aF0.689
aF0.695
aa(lp22
g12
aF0.101
aF0.059
aF0.109
aF0.118
aF0.042
aF0.076
aF0.042
aF0.059
aF0.067
aF0.102
aF0.05
aF0.109
aF0.109
aF0.0
aF0.093
aa(lp23
g14
aF0.294
aF0.252
aF0.277
aF0.319
aF0.297
aF0.328
aF0.244
aF0.345
aF0.361
aF0.271
aF0.277
aF0.311
aF0.193
aF0.261
aF0.271
aa(lp24
g16
aF0.109
aF0.067
aF0.126
aF0.143
aF0.169
aF0.067
aF0.118
aF0.067
aF0.143
aF0.068
aF0.0
aF0.118
aF0.109
aF0.092
aF0.11
aasS'Recall'
p25
(lp26
(lp27
g6
aF0.286
aF0.615
aF0.462
aF0.769
aF0.615
aF0.643
aF0.385
aF0.538
aF0.846
aF0.692
aF0.714
aF0.385
aF0.538
aF0.692
aF0.385
aa(lp28
g8
aF0.357
aF0.615
aF0.692
aF0.538
aF0.769
aF0.571
aF0.615
aF0.692
aF0.769
aF0.462
aF0.571
aF0.538
aF0.692
aF0.846
aF0.462
aa(lp29
g10
aF0.929
aF0.846
aF0.692
aF0.846
aF0.615
aF0.929
aF0.923
aF0.846
aF0.846
aF0.769
aF0.857
aF0.923
aF0.692
aF0.769
aF0.923
aa(lp30
g12
aF0.429
aF0.231
aF0.154
aF0.462
aF0.308
aF0.286
aF0.308
aF0.077
aF0.154
aF0.308
aF0.429
aF0.231
aF0.154
aF0.0
aF0.385
aa(lp31
g14
aF0.571
aF0.769
aF0.615
aF0.538
aF0.615
aF0.643
aF0.538
aF0.769
aF0.692
aF0.385
aF0.571
aF0.615
aF0.231
aF0.462
aF0.769
aa(lp32
g16
aF0.214
aF0.231
aF0.385
aF0.615
aF0.385
aF0.5
aF0.385
aF0.154
aF0.308
aF0.308
aF0.0
aF0.385
aF0.231
aF0.077
aF0.231
aasS'Precision'
p33
(lp34
(lp35
g6
aF0.129
aF0.229
aF0.182
aF0.227
aF0.2
aF0.25
aF0.152
aF0.2
aF0.275
aF0.188
aF0.2
aF0.185
aF0.189
aF0.225
aF0.139
aa(lp36
g8
aF0.125
aF0.186
aF0.214
aF0.135
aF0.233
aF0.267
aF0.19
aF0.188
aF0.154
aF0.214
aF0.178
aF0.135
aF0.225
aF0.229
aF0.194
aa(lp37
g10
aF0.131
aF0.124
aF0.136
aF0.12
aF0.084
aF0.141
aF0.135
aF0.112
aF0.121
aF0.11
aF0.122
aF0.124
aF0.125
aF0.109
aF0.128
aa(lp38
g12
aF0.333
aF0.3
aF0.133
aF0.3
aF0.444
aF0.308
aF0.444
aF0.125
aF0.2
aF0.25
aF0.5
aF0.188
aF0.133
aF0.0
aF0.313
aa(lp39
g14
aF0.186
aF0.25
aF0.195
aF0.156
aF0.186
aF0.188
aF0.194
aF0.196
aF0.173
aF0.135
aF0.195
aF0.178
aF0.115
aF0.162
aF0.238
aa(lp40
g16
aF0.188
aF0.273
aF0.25
aF0.32
aF0.2
aF0.467
aF0.263
aF0.2
aF0.19
aF0.333
aF0.0
aF0.263
aF0.188
aF0.083
aF0.188
aasS'F_score'
p41
(lp42
(lp43
g6
aF0.178
aF0.333
aF0.261
aF0.351
aF0.302
aF0.36
aF0.217
aF0.292
aF0.415
aF0.295
aF0.313
aF0.25
aF0.28
aF0.34
aF0.204
aa(lp44
g8
aF0.185
aF0.286
aF0.327
aF0.215
aF0.357
aF0.364
aF0.291
aF0.295
aF0.256
aF0.293
aF0.271
aF0.215
aF0.34
aF0.361
aF0.273
aa(lp45
g10
aF0.23
aF0.216
aF0.228
aF0.21
aF0.148
aF0.245
aF0.235
aF0.198
aF0.212
aF0.192
aF0.214
aF0.218
aF0.212
aF0.19
aF0.224
aa(lp46
g12
aF0.375
aF0.261
aF0.143
aF0.364
aF0.364
aF0.296
aF0.364
aF0.095
aF0.174
aF0.276
aF0.462
aF0.207
aF0.143
aF0.0
aF0.345
aa(lp47
g14
aF0.281
aF0.377
aF0.296
aF0.241
aF0.286
aF0.29
aF0.286
aF0.313
aF0.277
aF0.2
aF0.291
aF0.276
aF0.154
aF0.24
aF0.364
aa(lp48
g16
aF0.2
aF0.25
aF0.303
aF0.421
aF0.263
aF0.483
aF0.313
aF0.174
aF0.235
aF0.32
aF0.0
aF0.313
aF0.207
aF0.08
aF0.207
aasS'Accuracy'
p49
(lp50
(lp51
g6
aF0.722
aF0.758
aF0.742
aF0.72
aF0.718
aF0.759
aF0.727
aF0.742
aF0.765
aF0.672
aF0.669
aF0.773
aF0.727
aF0.735
aF0.702
aa(lp52
g8
aF0.669
aF0.697
aF0.72
aF0.614
aF0.725
aF0.789
aF0.705
aF0.674
aF0.561
aF0.779
aF0.677
aF0.614
aF0.735
aF0.705
aF0.756
aa(lp53
g10
aF0.346
aF0.394
aF0.538
aF0.371
aF0.298
aF0.398
aF0.409
aF0.326
aF0.379
aF0.359
aF0.338
aF0.348
aF0.492
aF0.356
aF0.366
aa(lp54
g12
aF0.85
aF0.871
aF0.818
aF0.841
aF0.893
aF0.857
aF0.894
aF0.856
aF0.856
aF0.84
aF0.895
aF0.826
aF0.818
aF0.0
aF0.855
aa(lp55
g14
aF0.692
aF0.75
aF0.712
aF0.667
aF0.695
aF0.669
aF0.735
aF0.667
aF0.644
aF0.695
aF0.707
aF0.682
aF0.75
aF0.712
aF0.733
aa(lp56
g16
aF0.82
aF0.864
aF0.826
aF0.833
aF0.786
aF0.887
aF0.833
aF0.856
aF0.803
aF0.87
aF0.0
aF0.833
aF0.826
aF0.826
aF0.824
aass.