(dp0
S'redaktor'
p1
(dp2
S'AUC'
p3
(lp4
(lp5
S'KNN'
p6
aF0.133
aF0.267
aF0.467
aF0.167
aF0.276
aF0.233
aF0.0
aF0.433
aF0.367
aF0.31
aF0.233
aF0.2
aF0.167
aF0.467
aF0.241
aa(lp7
S'SVM'
p8
aF0.267
aF0.2
aF0.133
aF0.167
aF0.138
aF0.233
aF0.1
aF0.167
aF0.167
aF0.034
aF0.167
aF0.133
aF0.167
aF0.1
aF0.241
aa(lp9
S'NB'
p10
aF0.633
aF0.633
aF0.7
aF0.767
aF0.724
aF0.8
aF0.733
aF0.7
aF0.633
aF0.69
aF0.8
aF0.633
aF0.5
aF0.833
aF0.69
aa(lp11
S'RF'
p12
aF0.0
aF0.1
aF0.0
aF0.0
aF0.069
aF0.033
aF0.033
aF0.133
aF0.1
aF0.138
aF0.167
aF0.067
aF0.1
aF0.0
aF0.103
aa(lp13
S'LR'
p14
aF0.033
aF0.3
aF0.133
aF0.1
aF0.103
aF0.033
aF0.067
aF0.133
aF0.233
aF0.276
aF0.0
aF0.233
aF0.2
aF0.367
aF0.138
aa(lp15
S'DT'
p16
aF0.033
aF0.067
aF0.1
aF0.133
aF0.069
aF0.2
aF0.033
aF0.1
aF0.1
aF0.172
aF0.2
aF0.033
aF0.067
aF0.067
aF0.172
aasS'False_alarm'
p17
(lp18
(lp19
g6
aF0.133
aF0.267
aF0.467
aF0.167
aF0.276
aF0.233
aF0.0
aF0.433
aF0.367
aF0.31
aF0.233
aF0.2
aF0.167
aF0.467
aF0.241
aa(lp20
g8
aF0.267
aF0.2
aF0.133
aF0.167
aF0.138
aF0.233
aF0.1
aF0.167
aF0.167
aF0.034
aF0.167
aF0.133
aF0.167
aF0.1
aF0.241
aa(lp21
g10
aF0.633
aF0.633
aF0.7
aF0.767
aF0.724
aF0.8
aF0.733
aF0.7
aF0.633
aF0.69
aF0.8
aF0.633
aF0.5
aF0.833
aF0.69
aa(lp22
g12
aF0.0
aF0.1
aF0.0
aF0.0
aF0.069
aF0.033
aF0.033
aF0.133
aF0.1
aF0.138
aF0.167
aF0.067
aF0.1
aF0.0
aF0.103
aa(lp23
g14
aF0.033
aF0.3
aF0.133
aF0.1
aF0.103
aF0.033
aF0.067
aF0.133
aF0.233
aF0.276
aF0.0
aF0.233
aF0.2
aF0.367
aF0.138
aa(lp24
g16
aF0.033
aF0.067
aF0.1
aF0.133
aF0.069
aF0.2
aF0.033
aF0.1
aF0.1
aF0.172
aF0.2
aF0.033
aF0.067
aF0.067
aF0.172
aasS'Recall'
p25
(lp26
(lp27
g6
aF0.333
aF0.5
aF0.6
aF0.4
aF0.8
aF0.333
aF0.0
aF0.6
aF0.4
aF0.2
aF0.667
aF0.333
aF0.4
aF0.6
aF0.6
aa(lp28
g8
aF0.5
aF0.5
aF0.4
aF0.6
aF0.6
aF0.667
aF0.167
aF0.6
aF0.4
aF0.6
aF0.833
aF0.5
aF0.6
aF0.4
aF0.6
aa(lp29
g10
aF0.833
aF0.333
aF1.0
aF1.0
aF1.0
aF1.0
aF0.833
aF1.0
aF0.6
aF1.0
aF1.0
aF0.833
aF0.6
aF1.0
aF0.8
aa(lp30
g12
aF0.833
aF0.333
aF0.4
aF0.2
aF0.6
aF0.333
aF0.333
aF0.6
aF0.4
aF1.0
aF0.5
aF0.5
aF0.6
aF0.6
aF0.6
aa(lp31
g14
aF0.167
aF0.667
aF0.8
aF0.4
aF0.4
aF0.5
aF0.5
aF0.6
aF1.0
aF0.6
aF0.0
aF0.833
aF0.6
aF0.6
aF0.4
aa(lp32
g16
aF0.5
aF0.667
aF0.6
aF0.4
aF0.4
aF0.667
aF0.5
aF0.4
aF0.4
aF0.6
aF0.5
aF0.5
aF0.6
aF0.4
aF0.4
aasS'Precision'
p33
(lp34
(lp35
g6
aF0.333
aF0.273
aF0.176
aF0.286
aF0.333
aF0.222
aF0.0
aF0.188
aF0.154
aF0.1
aF0.364
aF0.25
aF0.286
aF0.176
aF0.3
aa(lp36
g8
aF0.273
aF0.333
aF0.333
aF0.375
aF0.429
aF0.364
aF0.25
aF0.375
aF0.286
aF0.75
aF0.5
aF0.429
aF0.375
aF0.4
aF0.3
aa(lp37
g10
aF0.208
aF0.095
aF0.192
aF0.179
aF0.192
aF0.2
aF0.185
aF0.192
aF0.136
aF0.2
aF0.2
aF0.208
aF0.167
aF0.167
aF0.167
aa(lp38
g12
aF1.0
aF0.4
aF1.0
aF1.0
aF0.6
aF0.667
aF0.667
aF0.429
aF0.4
aF0.556
aF0.375
aF0.6
aF0.5
aF1.0
aF0.5
aa(lp39
g14
aF0.5
aF0.308
aF0.5
aF0.4
aF0.4
aF0.75
aF0.6
aF0.429
aF0.417
aF0.273
aF0.0
aF0.417
aF0.333
aF0.214
aF0.333
aa(lp40
g16
aF0.75
aF0.667
aF0.5
aF0.333
aF0.5
aF0.4
aF0.75
aF0.4
aF0.4
aF0.375
aF0.333
aF0.75
aF0.6
aF0.5
aF0.286
aasS'F_score'
p41
(lp42
(lp43
g6
aF0.333
aF0.353
aF0.273
aF0.333
aF0.471
aF0.267
aF0.0
aF0.286
aF0.222
aF0.133
aF0.471
aF0.286
aF0.333
aF0.273
aF0.4
aa(lp44
g8
aF0.353
aF0.4
aF0.364
aF0.462
aF0.5
aF0.471
aF0.2
aF0.462
aF0.333
aF0.667
aF0.625
aF0.462
aF0.462
aF0.4
aF0.4
aa(lp45
g10
aF0.333
aF0.148
aF0.323
aF0.303
aF0.323
aF0.333
aF0.303
aF0.323
aF0.222
aF0.333
aF0.333
aF0.333
aF0.261
aF0.286
aF0.276
aa(lp46
g12
aF0.909
aF0.364
aF0.571
aF0.333
aF0.6
aF0.444
aF0.444
aF0.5
aF0.4
aF0.714
aF0.429
aF0.545
aF0.545
aF0.75
aF0.545
aa(lp47
g14
aF0.25
aF0.421
aF0.615
aF0.4
aF0.4
aF0.6
aF0.545
aF0.5
aF0.588
aF0.375
aF0.0
aF0.556
aF0.429
aF0.316
aF0.364
aa(lp48
g16
aF0.6
aF0.667
aF0.545
aF0.364
aF0.444
aF0.5
aF0.6
aF0.4
aF0.4
aF0.462
aF0.4
aF0.6
aF0.6
aF0.444
aF0.333
aasS'Accuracy'
p49
(lp50
(lp51
g6
aF0.778
aF0.694
aF0.543
aF0.771
aF0.735
aF0.694
aF0.0
aF0.571
aF0.6
aF0.618
aF0.75
aF0.722
aF0.771
aF0.543
aF0.735
aa(lp52
g8
aF0.694
aF0.75
aF0.8
aF0.8
aF0.824
aF0.75
aF0.778
aF0.8
aF0.771
aF0.912
aF0.833
aF0.806
aF0.8
aF0.829
aF0.735
aa(lp53
g10
aF0.444
aF0.361
aF0.4
aF0.343
aF0.382
aF0.333
aF0.361
aF0.4
aF0.4
aF0.412
aF0.333
aF0.444
aF0.514
aF0.286
aF0.382
aa(lp54
g12
aF0.972
aF0.806
aF0.914
aF0.886
aF0.882
aF0.861
aF0.861
aF0.829
aF0.829
aF0.882
aF0.778
aF0.861
aF0.857
aF0.943
aF0.853
aa(lp55
g14
aF0.833
aF0.694
aF0.857
aF0.829
aF0.824
aF0.889
aF0.861
aF0.829
aF0.8
aF0.706
aF0.0
aF0.778
aF0.771
aF0.629
aF0.794
aa(lp56
g16
aF0.889
aF0.889
aF0.857
aF0.8
aF0.853
aF0.778
aF0.889
aF0.829
aF0.829
aF0.794
aF0.75
aF0.889
aF0.886
aF0.857
aF0.765
aass.