(dp0
S'tomcat'
p1
(dp2
S'AUC'
p3
(lp4
(lp5
S'KNN'
p6
aF0.223
aF0.276
aF0.231
aF0.231
aF0.199
aF0.293
aF0.244
aF0.231
aF0.224
aF0.288
aF0.21
aF0.192
aF0.256
aF0.199
aF0.224
aa(lp7
S'SVM'
p8
aF0.191
aF0.154
aF0.218
aF0.218
aF0.192
aF0.134
aF0.167
aF0.205
aF0.237
aF0.244
aF0.159
aF0.205
aF0.179
aF0.205
aF0.147
aa(lp9
S'NB'
p10
aF0.102
aF0.154
aF0.09
aF0.154
aF0.122
aF0.134
aF0.109
aF0.192
aF0.096
aF0.115
aF0.096
aF0.103
aF0.154
aF0.167
aF0.071
aa(lp11
S'RF'
p12
aF0.038
aF0.077
aF0.09
aF0.083
aF0.051
aF0.07
aF0.077
aF0.045
aF0.045
aF0.071
aF0.096
aF0.064
aF0.071
aF0.077
aF0.077
aa(lp13
S'LR'
p14
aF0.191
aF0.141
aF0.244
aF0.167
aF0.16
aF0.197
aF0.141
aF0.147
aF0.141
aF0.199
aF0.197
aF0.205
aF0.141
aF0.141
aF0.135
aa(lp15
S'DT'
p16
aF0.115
aF0.147
aF0.122
aF0.096
aF0.167
aF0.108
aF0.109
aF0.115
aF0.128
aF0.109
aF0.172
aF0.147
aF0.071
aF0.077
aF0.122
aasS'False_alarm'
p17
(lp18
(lp19
g6
aF0.223
aF0.276
aF0.231
aF0.231
aF0.199
aF0.293
aF0.244
aF0.231
aF0.224
aF0.288
aF0.21
aF0.192
aF0.256
aF0.199
aF0.224
aa(lp20
g8
aF0.191
aF0.154
aF0.218
aF0.218
aF0.192
aF0.134
aF0.167
aF0.205
aF0.237
aF0.244
aF0.159
aF0.205
aF0.179
aF0.205
aF0.147
aa(lp21
g10
aF0.102
aF0.154
aF0.09
aF0.154
aF0.122
aF0.134
aF0.109
aF0.192
aF0.096
aF0.115
aF0.096
aF0.103
aF0.154
aF0.167
aF0.071
aa(lp22
g12
aF0.038
aF0.077
aF0.09
aF0.083
aF0.051
aF0.07
aF0.077
aF0.045
aF0.045
aF0.071
aF0.096
aF0.064
aF0.071
aF0.077
aF0.077
aa(lp23
g14
aF0.191
aF0.141
aF0.244
aF0.167
aF0.16
aF0.197
aF0.141
aF0.147
aF0.141
aF0.199
aF0.197
aF0.205
aF0.141
aF0.141
aF0.135
aa(lp24
g16
aF0.115
aF0.147
aF0.122
aF0.096
aF0.167
aF0.108
aF0.109
aF0.115
aF0.128
aF0.109
aF0.172
aF0.147
aF0.071
aF0.077
aF0.122
aasS'Recall'
p25
(lp26
(lp27
g6
aF0.563
aF0.688
aF0.667
aF0.467
aF0.8
aF0.5
aF0.688
aF0.6
aF0.6
aF0.6
aF0.625
aF0.688
aF0.6
aF0.733
aF0.6
aa(lp28
g8
aF0.625
aF0.5
aF0.667
aF0.8
aF0.533
aF0.688
aF0.688
aF0.667
aF0.933
aF0.667
aF0.563
aF0.875
aF0.6
aF0.667
aF0.533
aa(lp29
g10
aF0.375
aF0.688
aF0.867
aF0.533
aF0.667
aF0.563
aF0.563
aF0.667
aF0.667
aF0.467
aF0.563
aF0.438
aF0.8
aF0.533
aF0.4
aa(lp30
g12
aF0.313
aF0.25
aF0.4
aF0.533
aF0.333
aF0.375
aF0.375
aF0.333
aF0.4
aF0.467
aF0.563
aF0.375
aF0.467
aF0.267
aF0.4
aa(lp31
g14
aF0.563
aF0.438
aF0.533
aF0.733
aF0.667
aF0.688
aF0.5
aF0.867
aF0.6
aF0.533
aF0.75
aF0.688
aF0.4
aF0.6
aF0.8
aa(lp32
g16
aF0.563
aF0.5
aF0.4
aF0.467
aF0.4
aF0.625
aF0.563
aF0.2
aF0.467
aF0.467
aF0.375
aF0.563
aF0.2
aF0.2
aF0.467
aasS'Precision'
p33
(lp34
(lp35
g6
aF0.205
aF0.204
aF0.217
aF0.163
aF0.279
aF0.148
aF0.224
aF0.2
aF0.205
aF0.167
aF0.233
aF0.268
aF0.184
aF0.262
aF0.205
aa(lp36
g8
aF0.25
aF0.25
aF0.227
aF0.261
aF0.211
aF0.344
aF0.297
aF0.238
aF0.275
aF0.208
aF0.265
aF0.304
aF0.243
aF0.238
aF0.258
aa(lp37
g10
aF0.273
aF0.314
aF0.481
aF0.25
aF0.345
aF0.3
aF0.346
aF0.25
aF0.4
aF0.28
aF0.375
aF0.304
aF0.333
aF0.235
aF0.353
aa(lp38
g12
aF0.455
aF0.25
aF0.3
aF0.381
aF0.385
aF0.353
aF0.333
aF0.417
aF0.462
aF0.389
aF0.375
aF0.375
aF0.389
aF0.25
aF0.333
aa(lp39
g14
aF0.231
aF0.241
aF0.174
aF0.297
aF0.286
aF0.262
aF0.267
aF0.361
aF0.29
aF0.205
aF0.279
aF0.256
aF0.214
aF0.29
aF0.364
aa(lp40
g16
aF0.333
aF0.258
aF0.24
aF0.318
aF0.188
aF0.37
aF0.346
aF0.143
aF0.259
aF0.292
aF0.182
aF0.281
aF0.214
aF0.2
aF0.269
aasS'F_score'
p41
(lp42
(lp43
g6
aF0.3
aF0.314
aF0.328
aF0.241
aF0.414
aF0.229
aF0.338
aF0.3
aF0.305
aF0.261
aF0.339
aF0.386
aF0.281
aF0.386
aF0.305
aa(lp44
g8
aF0.357
aF0.333
aF0.339
aF0.393
aF0.302
aF0.458
aF0.415
aF0.351
aF0.424
aF0.317
aF0.36
aF0.452
aF0.346
aF0.351
aF0.348
aa(lp45
g10
aF0.316
aF0.431
aF0.619
aF0.34
aF0.455
aF0.391
aF0.429
aF0.364
aF0.5
aF0.35
aF0.45
aF0.359
aF0.471
aF0.327
aF0.375
aa(lp46
g12
aF0.37
aF0.25
aF0.343
aF0.444
aF0.357
aF0.364
aF0.353
aF0.37
aF0.429
aF0.424
aF0.45
aF0.375
aF0.424
aF0.258
aF0.364
aa(lp47
g14
aF0.327
aF0.311
aF0.262
aF0.423
aF0.4
aF0.379
aF0.348
aF0.51
aF0.391
aF0.296
aF0.407
aF0.373
aF0.279
aF0.391
aF0.5
aa(lp48
g16
aF0.419
aF0.34
aF0.3
aF0.378
aF0.255
aF0.465
aF0.429
aF0.167
aF0.333
aF0.359
aF0.245
aF0.375
aF0.207
aF0.2
aF0.341
aasS'Accuracy'
p49
(lp50
(lp51
g6
aF0.757
aF0.721
aF0.76
aF0.743
aF0.801
aF0.688
aF0.75
aF0.754
aF0.76
aF0.702
aF0.775
aF0.797
aF0.731
aF0.795
aF0.76
aa(lp52
g8
aF0.792
aF0.814
aF0.772
aF0.784
aF0.784
aF0.85
aF0.82
aF0.784
aF0.778
aF0.749
aF0.815
aF0.802
aF0.801
aF0.784
aF0.825
aa(lp53
g10
aF0.85
aF0.831
aF0.906
aF0.819
aF0.86
aF0.838
aF0.86
aF0.795
aF0.883
aF0.848
aF0.873
aF0.855
aF0.842
aF0.807
aF0.883
aa(lp54
g12
aF0.902
aF0.86
aF0.865
aF0.883
aF0.895
aF0.879
aF0.872
aF0.901
aF0.906
aF0.889
aF0.873
aF0.884
aF0.889
aF0.865
aF0.877
aa(lp55
g14
aF0.786
aF0.82
aF0.737
aF0.825
aF0.825
aF0.792
aF0.826
aF0.854
aF0.836
aF0.778
aF0.798
aF0.785
aF0.819
aF0.836
aF0.86
aa(lp56
g16
aF0.855
aF0.82
aF0.836
aF0.865
aF0.795
aF0.867
aF0.86
aF0.825
aF0.836
aF0.854
aF0.786
aF0.826
aF0.865
aF0.86
aF0.842
aass.