(dp0
S'xalan'
p1
(dp2
S'AUC'
p3
(lp4
(lp5
S'KNN'
p6
aF0.333
aF0.5
aF1.0
aF0.5
aF0.5
aF0.667
aF1.0
aF0.5
aF0.0
aF0.5
aF1.0
aF1.0
aF0.5
aF0.0
aF0.0
aa(lp7
S'SVM'
p8
aF0.333
aF0.5
aF0.5
aF0.5
aF0.5
aF0.667
aF0.0
aF0.5
aF1.0
aF0.0
aF0.333
aF1.0
aF0.5
aF0.0
aF0.5
aa(lp9
S'NB'
p10
aF0.333
aF0.5
aF0.0
aF0.5
aF0.0
aF0.0
aF0.5
aF0.0
aF1.0
aF0.5
aF0.667
aF0.0
aF0.5
aF0.0
aF0.5
aa(lp11
S'RF'
p12
aF0.333
aF1.0
aF0.0
aF0.5
aF0.5
aF1.0
aF0.5
aF1.0
aF0.0
aF0.0
aF0.333
aF1.0
aF0.0
aF0.5
aF0.5
aa(lp13
S'LR'
p14
aF0.333
aF0.5
aF1.0
aF1.0
aF0.5
aF1.0
aF0.5
aF1.0
aF1.0
aF0.5
aF0.667
aF1.0
aF1.0
aF0.0
aF0.5
aa(lp15
S'DT'
p16
aF0.0
aF0.5
aF1.0
aF0.5
aF0.0
aF0.333
aF0.5
aF0.0
aF1.0
aF0.0
aF0.667
aF0.0
aF0.5
aF0.0
aF0.5
aasS'False_alarm'
p17
(lp18
(lp19
g6
aF0.333
aF0.5
aF1.0
aF0.5
aF0.5
aF0.667
aF1.0
aF0.5
aF0.0
aF0.5
aF1.0
aF1.0
aF0.5
aF0.0
aF0.0
aa(lp20
g8
aF0.333
aF0.5
aF0.5
aF0.5
aF0.5
aF0.667
aF0.0
aF0.5
aF1.0
aF0.0
aF0.333
aF1.0
aF0.5
aF0.0
aF0.5
aa(lp21
g10
aF0.333
aF0.5
aF0.0
aF0.5
aF0.0
aF0.0
aF0.5
aF0.0
aF1.0
aF0.5
aF0.667
aF0.0
aF0.5
aF0.0
aF0.5
aa(lp22
g12
aF0.333
aF1.0
aF0.0
aF0.5
aF0.5
aF1.0
aF0.5
aF1.0
aF0.0
aF0.0
aF0.333
aF1.0
aF0.0
aF0.5
aF0.5
aa(lp23
g14
aF0.333
aF0.5
aF1.0
aF1.0
aF0.5
aF1.0
aF0.5
aF1.0
aF1.0
aF0.5
aF0.667
aF1.0
aF1.0
aF0.0
aF0.5
aa(lp24
g16
aF0.0
aF0.5
aF1.0
aF0.5
aF0.0
aF0.333
aF0.5
aF0.0
aF1.0
aF0.0
aF0.667
aF0.0
aF0.5
aF0.0
aF0.5
aasS'Recall'
p25
(lp26
(lp27
g6
aF0.994
aF0.994
aF0.994
aF0.994
aF1.0
aF0.994
aF0.983
aF0.994
aF1.0
aF0.994
aF0.989
aF1.0
aF0.994
aF1.0
aF1.0
aa(lp28
g8
aF1.0
aF0.994
aF0.989
aF0.994
aF0.983
aF1.0
aF0.994
aF1.0
aF1.0
aF0.983
aF0.983
aF1.0
aF1.0
aF1.0
aF0.989
aa(lp29
g10
aF0.844
aF0.894
aF0.894
aF0.905
aF0.832
aF0.844
aF0.883
aF0.844
aF0.939
aF0.905
aF0.939
aF0.828
aF0.928
aF0.877
aF0.832
aa(lp30
g12
aF1.0
aF1.0
aF0.994
aF1.0
aF1.0
aF1.0
aF1.0
aF1.0
aF1.0
aF0.994
aF1.0
aF1.0
aF1.0
aF1.0
aF1.0
aa(lp31
g14
aF0.994
aF1.0
aF1.0
aF0.994
aF0.994
aF1.0
aF0.994
aF0.994
aF0.994
aF1.0
aF1.0
aF0.994
aF0.994
aF0.989
aF0.994
aa(lp32
g16
aF1.0
aF0.983
aF1.0
aF0.989
aF0.994
aF0.994
aF0.989
aF0.994
aF0.994
aF1.0
aF0.994
aF0.983
aF0.994
aF1.0
aF1.0
aasS'Precision'
p33
(lp34
(lp35
g6
aF0.994
aF0.994
aF0.989
aF0.994
aF0.994
aF0.989
aF0.989
aF0.994
aF1.0
aF0.994
aF0.983
aF0.989
aF0.994
aF1.0
aF1.0
aa(lp36
g8
aF0.994
aF0.994
aF0.994
aF0.994
aF0.994
aF0.989
aF1.0
aF0.994
aF0.989
aF1.0
aF0.994
aF0.989
aF0.994
aF1.0
aF0.994
aa(lp37
g10
aF0.993
aF0.994
aF1.0
aF0.994
aF1.0
aF1.0
aF0.994
aF1.0
aF0.988
aF0.994
aF0.988
aF1.0
aF0.994
aF1.0
aF0.993
aa(lp38
g12
aF0.994
aF0.989
aF1.0
aF0.994
aF0.994
aF0.984
aF0.994
aF0.989
aF1.0
aF1.0
aF0.994
aF0.989
aF1.0
aF0.994
aF0.994
aa(lp39
g14
aF0.994
aF0.994
aF0.989
aF0.989
aF0.994
aF0.984
aF0.994
aF0.989
aF0.989
aF0.994
aF0.989
aF0.989
aF0.989
aF1.0
aF0.994
aa(lp40
g16
aF1.0
aF0.994
aF0.989
aF0.994
aF1.0
aF0.994
aF0.994
aF1.0
aF0.989
aF1.0
aF0.989
aF1.0
aF0.994
aF1.0
aF0.994
aasS'F_score'
p41
(lp42
(lp43
g6
aF0.994
aF0.994
aF0.992
aF0.994
aF0.997
aF0.992
aF0.986
aF0.994
aF1.0
aF0.994
aF0.986
aF0.994
aF0.994
aF1.0
aF1.0
aa(lp44
g8
aF0.997
aF0.994
aF0.992
aF0.994
aF0.989
aF0.994
aF0.997
aF0.997
aF0.994
aF0.992
aF0.989
aF0.994
aF0.997
aF1.0
aF0.992
aa(lp45
g10
aF0.913
aF0.942
aF0.944
aF0.947
aF0.909
aF0.916
aF0.935
aF0.916
aF0.963
aF0.947
aF0.963
aF0.906
aF0.96
aF0.935
aF0.906
aa(lp46
g12
aF0.997
aF0.994
aF0.997
aF0.997
aF0.997
aF0.992
aF0.997
aF0.994
aF1.0
aF0.997
aF0.997
aF0.994
aF1.0
aF0.997
aF0.997
aa(lp47
g14
aF0.994
aF0.997
aF0.994
aF0.992
aF0.994
aF0.992
aF0.994
aF0.992
aF0.992
aF0.997
aF0.994
aF0.992
aF0.992
aF0.994
aF0.994
aa(lp48
g16
aF1.0
aF0.989
aF0.994
aF0.992
aF0.997
aF0.994
aF0.992
aF0.997
aF0.992
aF1.0
aF0.992
aF0.992
aF0.994
aF1.0
aF0.997
aasS'Accuracy'
p49
(lp50
(lp51
g6
aF0.989
aF0.989
aF0.984
aF0.989
aF0.994
aF0.984
aF0.973
aF0.989
aF1.0
aF0.989
aF0.973
aF0.989
aF0.989
aF1.0
aF1.0
aa(lp52
g8
aF0.995
aF0.989
aF0.984
aF0.989
aF0.978
aF0.989
aF0.995
aF0.995
aF0.989
aF0.983
aF0.978
aF0.989
aF0.995
aF1.0
aF0.983
aa(lp53
g10
aF0.842
aF0.89
aF0.896
aF0.901
aF0.834
aF0.847
aF0.879
aF0.846
aF0.928
aF0.901
aF0.929
aF0.83
aF0.923
aF0.878
aF0.829
aa(lp54
g12
aF0.995
aF0.989
aF0.995
aF0.994
aF0.994
aF0.984
aF0.995
aF0.989
aF1.0
aF0.994
aF0.995
aF0.989
aF1.0
aF0.994
aF0.994
aa(lp55
g14
aF0.989
aF0.995
aF0.989
aF0.983
aF0.989
aF0.984
aF0.989
aF0.984
aF0.983
aF0.994
aF0.989
aF0.984
aF0.984
aF0.989
aF0.989
aa(lp56
g16
aF1.0
aF0.978
aF0.989
aF0.983
aF0.994
aF0.989
aF0.984
aF0.995
aF0.983
aF1.0
aF0.984
aF0.984
aF0.989
aF1.0
aF0.994
aass.