(dp0
S'xerces'
p1
(dp2
S'AUC'
p3
(lp4
(lp5
S'KNN'
p6
aF0.548
aF0.333
aF0.333
aF0.3
aF0.5
aF0.452
aF0.333
aF0.267
aF0.3
aF0.3
aF0.387
aF0.3
aF0.3
aF0.267
aF0.433
aa(lp7
S'SVM'
p8
aF0.194
aF0.1
aF0.233
aF0.133
aF0.3
aF0.129
aF0.167
aF0.267
aF0.233
aF0.067
aF0.161
aF0.233
aF0.2
aF0.1
aF0.2
aa(lp9
S'NB'
p10
aF0.161
aF0.133
aF0.133
aF0.0
aF0.067
aF0.032
aF0.1
aF0.133
aF0.167
aF0.1
aF0.129
aF0.167
aF0.0
aF0.067
aF0.167
aa(lp11
S'RF'
p12
aF0.258
aF0.067
aF0.1
aF0.233
aF0.233
aF0.161
aF0.3
aF0.1
aF0.133
aF0.333
aF0.323
aF0.133
aF0.167
aF0.167
aF0.133
aa(lp13
S'LR'
p14
aF0.194
aF0.267
aF0.133
aF0.233
aF0.067
aF0.226
aF0.233
aF0.2
aF0.2
aF0.167
aF0.29
aF0.2
aF0.067
aF0.133
aF0.233
aa(lp15
S'DT'
p16
aF0.161
aF0.067
aF0.133
aF0.267
aF0.233
aF0.161
aF0.167
aF0.167
aF0.2
aF0.2
aF0.161
aF0.233
aF0.3
aF0.1
aF0.133
aasS'False_alarm'
p17
(lp18
(lp19
g6
aF0.548
aF0.333
aF0.333
aF0.3
aF0.5
aF0.452
aF0.333
aF0.267
aF0.3
aF0.3
aF0.387
aF0.3
aF0.3
aF0.267
aF0.433
aa(lp20
g8
aF0.194
aF0.1
aF0.233
aF0.133
aF0.3
aF0.129
aF0.167
aF0.267
aF0.233
aF0.067
aF0.161
aF0.233
aF0.2
aF0.1
aF0.2
aa(lp21
g10
aF0.161
aF0.133
aF0.133
aF0.0
aF0.067
aF0.032
aF0.1
aF0.133
aF0.167
aF0.1
aF0.129
aF0.167
aF0.0
aF0.067
aF0.167
aa(lp22
g12
aF0.258
aF0.067
aF0.1
aF0.233
aF0.233
aF0.161
aF0.3
aF0.1
aF0.133
aF0.333
aF0.323
aF0.133
aF0.167
aF0.167
aF0.133
aa(lp23
g14
aF0.194
aF0.267
aF0.133
aF0.233
aF0.067
aF0.226
aF0.233
aF0.2
aF0.2
aF0.167
aF0.29
aF0.2
aF0.067
aF0.133
aF0.233
aa(lp24
g16
aF0.161
aF0.067
aF0.133
aF0.267
aF0.233
aF0.161
aF0.167
aF0.167
aF0.2
aF0.2
aF0.161
aF0.233
aF0.3
aF0.1
aF0.133
aasS'Recall'
p25
(lp26
(lp27
g6
aF0.92
aF0.955
aF0.885
aF0.943
aF0.828
aF0.875
aF0.943
aF0.897
aF0.943
aF0.897
aF0.943
aF0.92
aF0.931
aF0.931
aF0.908
aa(lp28
g8
aF0.932
aF0.875
aF0.943
aF0.954
aF0.931
aF0.932
aF0.92
aF0.92
aF0.954
aF0.92
aF0.932
aF0.955
aF0.908
aF0.943
aF0.931
aa(lp29
g10
aF0.659
aF0.568
aF0.563
aF0.517
aF0.563
aF0.523
aF0.602
aF0.632
aF0.598
aF0.54
aF0.5
aF0.602
aF0.586
aF0.563
aF0.621
aa(lp30
g12
aF0.966
aF0.955
aF0.989
aF0.954
aF0.966
aF0.955
aF0.955
aF0.966
aF0.931
aF0.954
aF0.955
aF0.943
aF0.943
aF0.954
aF0.966
aa(lp31
g14
aF0.92
aF0.898
aF0.851
aF0.943
aF0.954
aF0.955
aF0.966
aF0.943
aF0.897
aF0.92
aF0.932
aF0.909
aF0.931
aF0.897
aF0.931
aa(lp32
g16
aF0.92
aF0.898
aF0.897
aF0.989
aF0.943
aF0.966
aF0.898
aF0.92
aF0.954
aF0.977
aF0.886
aF0.955
aF0.966
aF0.954
aF0.943
aasS'Precision'
p33
(lp34
(lp35
g6
aF0.827
aF0.894
aF0.885
aF0.901
aF0.828
aF0.846
aF0.892
aF0.907
aF0.901
aF0.897
aF0.874
aF0.9
aF0.9
aF0.91
aF0.859
aa(lp36
g8
aF0.932
aF0.963
aF0.921
aF0.954
aF0.9
aF0.953
aF0.942
aF0.909
aF0.922
aF0.976
aF0.943
aF0.923
aF0.929
aF0.965
aF0.931
aa(lp37
g10
aF0.921
aF0.926
aF0.925
aF1.0
aF0.961
aF0.979
aF0.946
aF0.932
aF0.912
aF0.94
aF0.917
aF0.914
aF1.0
aF0.961
aF0.915
aa(lp38
g12
aF0.914
aF0.977
aF0.966
aF0.922
aF0.923
aF0.944
aF0.903
aF0.966
aF0.953
aF0.892
aF0.894
aF0.954
aF0.943
aF0.943
aF0.955
aa(lp39
g14
aF0.931
aF0.908
aF0.949
aF0.921
aF0.976
aF0.923
aF0.924
aF0.932
aF0.929
aF0.941
aF0.901
aF0.93
aF0.976
aF0.951
aF0.92
aa(lp40
g16
aF0.942
aF0.975
aF0.951
aF0.915
aF0.921
aF0.944
aF0.94
aF0.941
aF0.933
aF0.934
aF0.94
aF0.923
aF0.903
aF0.965
aF0.953
aasS'F_score'
p41
(lp42
(lp43
g6
aF0.871
aF0.923
aF0.885
aF0.921
aF0.828
aF0.86
aF0.917
aF0.902
aF0.921
aF0.897
aF0.907
aF0.91
aF0.915
aF0.92
aF0.883
aa(lp44
g8
aF0.932
aF0.917
aF0.932
aF0.954
aF0.915
aF0.943
aF0.931
aF0.914
aF0.938
aF0.947
aF0.937
aF0.939
aF0.919
aF0.953
aF0.931
aa(lp45
g10
aF0.768
aF0.704
aF0.7
aF0.682
aF0.71
aF0.681
aF0.736
aF0.753
aF0.722
aF0.686
aF0.647
aF0.726
aF0.739
aF0.71
aF0.74
aa(lp46
g12
aF0.939
aF0.966
aF0.977
aF0.938
aF0.944
aF0.949
aF0.928
aF0.966
aF0.942
aF0.922
aF0.923
aF0.949
aF0.943
aF0.949
aF0.96
aa(lp47
g14
aF0.926
aF0.903
aF0.897
aF0.932
aF0.965
aF0.939
aF0.944
aF0.937
aF0.912
aF0.93
aF0.916
aF0.92
aF0.953
aF0.923
aF0.926
aa(lp48
g16
aF0.931
aF0.935
aF0.923
aF0.95
aF0.932
aF0.955
aF0.919
aF0.93
aF0.943
aF0.955
aF0.912
aF0.939
aF0.933
aF0.96
aF0.948
aasS'Accuracy'
p49
(lp50
(lp51
g6
aF0.798
aF0.881
aF0.829
aF0.88
aF0.744
aF0.79
aF0.873
aF0.855
aF0.88
aF0.846
aF0.857
aF0.864
aF0.872
aF0.88
aF0.821
aa(lp52
g8
aF0.899
aF0.881
aF0.897
aF0.932
aF0.872
aF0.916
aF0.898
aF0.872
aF0.906
aF0.923
aF0.908
aF0.907
aF0.88
aF0.932
aF0.897
aa(lp53
g10
aF0.706
aF0.644
aF0.641
aF0.641
aF0.658
aF0.639
aF0.678
aF0.692
aF0.658
aF0.632
aF0.597
aF0.661
aF0.692
aF0.658
aF0.675
aa(lp54
g12
aF0.908
aF0.949
aF0.966
aF0.906
aF0.915
aF0.924
aF0.89
aF0.949
aF0.915
aF0.88
aF0.882
aF0.924
aF0.915
aF0.923
aF0.94
aa(lp55
g14
aF0.891
aF0.856
aF0.855
aF0.897
aF0.949
aF0.908
aF0.915
aF0.906
aF0.872
aF0.897
aF0.874
aF0.881
aF0.932
aF0.889
aF0.889
aa(lp56
g16
aF0.899
aF0.907
aF0.889
aF0.923
aF0.897
aF0.933
aF0.881
aF0.897
aF0.915
aF0.932
aF0.874
aF0.907
aF0.897
aF0.94
aF0.923
aass.