(dp0
S'camel'
p1
(dp2
S'Recall'
p3
(lp4
(lp5
S'KNN'
p6
aF0.727
aF0.815
aF0.862
aF0.8
aF0.769
aF0.697
aF0.738
aF0.8
aF0.8
aF0.862
aF0.833
aF0.831
aF0.769
aF0.785
aF0.677
aF0.818
aF0.862
aF0.785
aF0.692
aF0.877
aF0.773
aF0.769
aF0.708
aF0.862
aF0.785
aa(lp7
S'SVM'
p8
aF0.833
aF0.846
aF0.815
aF0.846
aF0.815
aF0.742
aF0.754
aF0.831
aF0.785
aF0.862
aF0.758
aF0.862
aF0.892
aF0.862
aF0.723
aF0.758
aF0.908
aF0.831
aF0.846
aF0.8
aF0.773
aF0.846
aF0.692
aF0.831
aF0.754
aa(lp9
S'NB'
p10
aF0.818
aF0.877
aF0.862
aF0.831
aF0.846
aF0.788
aF0.8
aF0.846
aF0.815
aF0.831
aF0.894
aF0.892
aF0.862
aF0.815
aF0.662
aF0.909
aF0.846
aF0.846
aF0.815
aF0.846
aF0.773
aF0.908
aF0.754
aF0.8
aF0.831
aa(lp11
S'RF'
p12
aF0.894
aF0.938
aF0.969
aF0.938
aF0.954
aF0.955
aF0.954
aF0.938
aF0.938
aF0.938
aF1.0
aF0.954
aF0.954
aF0.969
aF0.908
aF0.939
aF0.938
aF0.969
aF0.969
aF0.938
aF0.985
aF0.923
aF0.969
aF0.923
aF0.969
aa(lp13
S'LR'
p14
aF0.833
aF0.846
aF0.846
aF0.862
aF0.785
aF0.788
aF0.8
aF0.846
aF0.815
aF0.846
aF0.803
aF0.877
aF0.862
aF0.877
aF0.738
aF0.818
aF0.923
aF0.846
aF0.831
aF0.8
aF0.758
aF0.846
aF0.769
aF0.769
aF0.8
aa(lp15
S'DT'
p16
aF0.909
aF0.923
aF0.892
aF0.892
aF0.969
aF0.939
aF0.877
aF0.923
aF0.923
aF0.954
aF0.909
aF0.862
aF0.985
aF0.954
aF0.877
aF0.864
aF0.969
aF0.954
aF0.954
aF0.969
aF0.97
aF0.846
aF0.954
aF0.938
aF0.938
aasS'Precision'
p17
(lp18
(lp19
g6
aF0.96
aF0.981
aF0.949
aF0.981
aF1.0
aF0.958
aF0.96
aF0.981
aF0.981
aF0.966
aF0.948
aF0.947
aF0.98
aF0.981
aF0.978
aF0.982
aF0.949
aF0.962
aF0.978
aF1.0
aF0.981
aF0.98
aF0.958
aF0.982
aF0.962
aa(lp20
g8
aF0.948
aF0.982
aF0.964
aF0.982
aF0.981
aF0.98
aF0.961
aF1.0
aF0.962
aF0.966
aF0.962
aF0.949
aF0.967
aF0.982
aF0.979
aF0.98
aF0.952
aF0.964
aF0.965
aF1.0
aF1.0
aF0.948
aF0.957
aF0.964
aF0.98
aa(lp21
g10
aF0.964
aF0.983
aF0.982
aF0.982
aF1.0
aF0.945
aF0.981
aF0.982
aF0.981
aF0.982
aF0.952
aF0.983
aF0.982
aF1.0
aF0.977
aF0.968
aF0.982
aF0.965
aF0.981
aF1.0
aF0.981
aF0.967
aF0.961
aF0.981
aF0.964
aa(lp22
g12
aF0.952
aF0.968
aF0.955
aF0.984
aF0.984
aF0.955
aF0.954
aF0.968
aF0.968
aF0.968
aF0.971
aF0.969
aF0.969
aF0.969
aF0.983
aF0.954
aF0.968
aF0.969
aF0.969
aF0.984
aF0.97
aF0.952
aF0.955
aF0.968
aF0.984
aa(lp23
g14
aF0.948
aF0.982
aF0.965
aF0.982
aF0.981
aF0.963
aF0.963
aF1.0
aF0.981
aF0.965
aF0.964
aF0.983
aF0.966
aF0.983
aF0.98
aF0.964
aF0.968
aF0.965
aF0.982
aF1.0
aF0.98
aF0.948
aF0.962
aF0.962
aF0.981
aa(lp24
g16
aF0.952
aF0.968
aF0.951
aF0.983
aF0.984
aF0.969
aF0.95
aF0.968
aF0.968
aF0.969
aF0.968
aF0.949
aF0.97
aF0.969
aF0.983
aF0.966
aF0.955
aF0.984
aF0.969
aF0.984
aF0.985
aF0.948
aF0.954
aF0.968
aF0.968
aasS'F_score'
p25
(lp26
(lp27
g6
aF0.828
aF0.891
aF0.903
aF0.881
aF0.87
aF0.807
aF0.835
aF0.881
aF0.881
aF0.911
aF0.887
aF0.885
aF0.862
aF0.872
aF0.8
aF0.893
aF0.903
aF0.864
aF0.811
aF0.934
aF0.864
aF0.862
aF0.814
aF0.918
aF0.864
aa(lp28
g8
aF0.887
aF0.909
aF0.883
aF0.909
aF0.891
aF0.845
aF0.845
aF0.908
aF0.864
aF0.911
aF0.847
aF0.903
aF0.928
aF0.918
aF0.832
aF0.855
aF0.929
aF0.893
aF0.902
aF0.889
aF0.872
aF0.894
aF0.804
aF0.893
aF0.852
aa(lp29
g10
aF0.885
aF0.927
aF0.918
aF0.9
aF0.917
aF0.86
aF0.881
aF0.909
aF0.891
aF0.9
aF0.922
aF0.935
aF0.918
aF0.898
aF0.789
aF0.937
aF0.909
aF0.902
aF0.891
aF0.917
aF0.864
aF0.937
aF0.845
aF0.881
aF0.893
aa(lp30
g12
aF0.922
aF0.953
aF0.962
aF0.961
aF0.969
aF0.955
aF0.954
aF0.953
aF0.953
aF0.953
aF0.985
aF0.961
aF0.961
aF0.969
aF0.944
aF0.947
aF0.953
aF0.969
aF0.969
aF0.961
aF0.977
aF0.938
aF0.962
aF0.945
aF0.977
aa(lp31
g14
aF0.887
aF0.909
aF0.902
aF0.918
aF0.872
aF0.867
aF0.874
aF0.917
aF0.891
aF0.902
aF0.876
aF0.927
aF0.911
aF0.927
aF0.842
aF0.885
aF0.945
aF0.902
aF0.9
aF0.889
aF0.855
aF0.894
aF0.855
aF0.855
aF0.881
aa(lp32
g16
aF0.93
aF0.945
aF0.921
aF0.935
aF0.977
aF0.954
aF0.912
aF0.945
aF0.945
aF0.961
aF0.937
aF0.903
aF0.977
aF0.961
aF0.927
aF0.912
aF0.962
aF0.969
aF0.961
aF0.977
aF0.977
aF0.894
aF0.954
aF0.953
aF0.953
aasS'Accuracy'
p33
(lp34
(lp35
g6
aF0.71
aF0.809
aF0.824
aF0.791
aF0.776
aF0.681
aF0.721
aF0.794
aF0.791
aF0.836
aF0.797
aF0.794
aF0.765
aF0.776
aF0.672
aF0.812
aF0.824
aF0.765
aF0.687
aF0.881
aF0.768
aF0.765
aF0.691
aF0.851
aF0.761
aa(lp36
g8
aF0.797
aF0.838
aF0.794
aF0.836
aF0.806
aF0.739
aF0.735
aF0.838
aF0.761
aF0.836
aF0.739
aF0.824
aF0.868
aF0.851
aF0.716
aF0.754
aF0.868
aF0.809
aF0.821
aF0.806
aF0.783
aF0.809
aF0.676
aF0.806
aF0.746
aa(lp37
g10
aF0.797
aF0.868
aF0.853
aF0.821
aF0.851
aF0.754
aF0.794
aF0.838
aF0.806
aF0.821
aF0.855
aF0.882
aF0.853
aF0.821
aF0.657
aF0.884
aF0.838
aF0.824
aF0.806
aF0.851
aF0.768
aF0.882
aF0.735
aF0.791
aF0.806
aa(lp38
g12
aF0.855
aF0.912
aF0.926
aF0.925
aF0.94
aF0.913
aF0.912
aF0.912
aF0.91
aF0.91
aF0.971
aF0.926
aF0.926
aF0.94
aF0.896
aF0.899
aF0.912
aF0.941
aF0.94
aF0.925
aF0.957
aF0.882
aF0.926
aF0.896
aF0.955
aa(lp39
g14
aF0.797
aF0.838
aF0.824
aF0.851
aF0.776
aF0.768
aF0.779
aF0.853
aF0.806
aF0.821
aF0.783
aF0.868
aF0.838
aF0.866
aF0.731
aF0.797
aF0.897
aF0.824
aF0.821
aF0.806
aF0.754
aF0.809
aF0.75
aF0.746
aF0.791
aa(lp40
g16
aF0.87
aF0.897
aF0.853
aF0.881
aF0.955
aF0.913
aF0.838
aF0.897
aF0.896
aF0.925
aF0.884
aF0.824
aF0.956
aF0.925
aF0.866
aF0.841
aF0.926
aF0.941
aF0.925
aF0.955
aF0.957
aF0.809
aF0.912
aF0.91
aF0.91
aass.