(dp0
S'redaktor'
p1
(dp2
S'Recall'
p3
(lp4
(lp5
S'KNN'
p6
aF0.667
aF0.633
aF0.8
aF0.8
aF0.759
aF0.633
aF0.833
aF0.6
aF0.7
aF0.724
aF0.667
aF0.667
aF0.6
aF0.767
aF0.724
aF0.733
aF0.733
aF0.633
aF0.633
aF0.586
aF0.6
aF0.5
aF0.7
aF0.867
aF0.828
aa(lp7
S'SVM'
p8
aF0.833
aF0.867
aF0.867
aF0.867
aF0.828
aF0.867
aF0.867
aF0.933
aF0.933
aF1.0
aF0.9
aF0.867
aF0.867
aF0.9
aF0.862
aF0.9
aF0.867
aF0.733
aF0.767
aF0.828
aF0.933
aF0.833
aF0.8
aF0.933
aF0.966
aa(lp9
S'NB'
p10
aF0.233
aF0.1
aF0.367
aF0.467
aF0.345
aF0.333
aF0.267
aF0.333
aF0.533
aF0.276
aF0.3
aF0.3
aF0.233
aF0.267
aF0.483
aF0.567
aF0.233
aF0.267
aF0.267
aF0.448
aF0.133
aF0.2
aF0.3
aF0.5
aF0.483
aa(lp11
S'RF'
p12
aF0.967
aF0.9
aF0.933
aF0.933
aF0.897
aF1.0
aF0.867
aF0.933
aF0.867
aF0.897
aF0.833
aF0.9
aF0.933
aF0.933
aF0.966
aF1.0
aF0.9
aF0.967
aF0.933
aF0.931
aF0.933
aF0.867
aF0.967
aF0.967
aF0.931
aa(lp13
S'LR'
p14
aF0.767
aF0.767
aF0.867
aF0.8
aF0.828
aF0.9
aF0.867
aF0.967
aF0.833
aF0.966
aF0.8
aF0.867
aF0.833
aF0.867
aF0.828
aF0.9
aF0.867
aF0.767
aF0.8
aF0.759
aF0.867
aF0.8
aF0.767
aF0.9
aF0.966
aa(lp15
S'DT'
p16
aF0.933
aF0.833
aF0.867
aF0.967
aF0.931
aF1.0
aF0.933
aF0.933
aF0.9
aF0.931
aF0.7
aF0.9
aF0.967
aF0.867
aF0.931
aF0.967
aF0.867
aF0.833
aF0.833
aF0.897
aF0.9
aF0.867
aF0.767
aF0.867
aF0.897
aasS'Precision'
p17
(lp18
(lp19
g6
aF0.909
aF0.826
aF0.889
aF0.857
aF0.846
aF0.864
aF0.862
aF0.9
aF0.808
aF0.84
aF0.87
aF0.87
aF0.9
aF0.852
aF0.84
aF0.88
aF0.88
aF0.905
aF0.864
aF0.85
aF0.783
aF0.833
aF0.875
aF0.867
aF0.889
aa(lp20
g8
aF0.962
aF0.897
aF0.963
aF0.897
aF0.923
aF0.897
aF0.867
aF1.0
aF0.875
aF0.935
aF0.964
aF0.897
aF0.929
aF0.9
aF0.893
aF0.9
aF0.897
aF0.957
aF1.0
aF0.889
aF0.903
aF0.962
aF0.923
aF0.848
aF0.933
aa(lp21
g10
aF0.875
aF1.0
aF0.917
aF0.824
aF1.0
aF0.909
aF1.0
aF1.0
aF0.889
aF0.8
aF1.0
aF1.0
aF1.0
aF0.889
aF0.875
aF0.895
aF1.0
aF1.0
aF0.8
aF0.929
aF0.8
aF1.0
aF1.0
aF0.833
aF0.933
aa(lp22
g12
aF0.935
aF0.871
aF0.933
aF0.875
aF0.897
aF0.909
aF0.867
aF0.966
aF0.867
aF0.897
aF0.893
aF0.871
aF0.933
aF0.903
aF0.875
aF0.938
aF0.9
aF0.906
aF0.903
aF0.9
aF0.875
aF0.963
aF0.906
aF0.853
aF0.931
aa(lp23
g14
aF0.958
aF0.885
aF1.0
aF0.889
aF0.889
aF0.9
aF0.867
aF1.0
aF0.862
aF0.966
aF0.96
aF0.897
aF0.926
aF0.897
aF0.923
aF0.9
aF0.897
aF0.958
aF0.923
aF0.88
aF0.897
aF0.96
aF0.92
aF0.844
aF0.933
aa(lp24
g16
aF0.933
aF0.893
aF0.897
aF0.879
aF0.9
aF0.909
aF0.875
aF0.966
aF0.9
aF0.9
aF0.808
aF0.871
aF0.906
aF0.897
aF0.931
aF0.935
aF0.897
aF0.893
aF0.893
aF0.839
aF0.871
aF0.963
aF0.885
aF0.839
aF0.929
aasS'F_score'
p25
(lp26
(lp27
g6
aF0.769
aF0.717
aF0.842
aF0.828
aF0.8
aF0.731
aF0.847
aF0.72
aF0.75
aF0.778
aF0.755
aF0.755
aF0.72
aF0.807
aF0.778
aF0.8
aF0.8
aF0.745
aF0.731
aF0.694
aF0.679
aF0.625
aF0.778
aF0.867
aF0.857
aa(lp28
g8
aF0.893
aF0.881
aF0.912
aF0.881
aF0.873
aF0.881
aF0.867
aF0.966
aF0.903
aF0.967
aF0.931
aF0.881
aF0.897
aF0.9
aF0.877
aF0.9
aF0.881
aF0.83
aF0.868
aF0.857
aF0.918
aF0.893
aF0.857
aF0.889
aF0.949
aa(lp29
g10
aF0.368
aF0.182
aF0.524
aF0.596
aF0.513
aF0.488
aF0.421
aF0.5
aF0.667
aF0.41
aF0.462
aF0.462
aF0.378
aF0.41
aF0.622
aF0.694
aF0.378
aF0.421
aF0.4
aF0.605
aF0.229
aF0.333
aF0.462
aF0.625
aF0.636
aa(lp30
g12
aF0.951
aF0.885
aF0.933
aF0.903
aF0.897
aF0.952
aF0.867
aF0.949
aF0.867
aF0.897
aF0.862
aF0.885
aF0.933
aF0.918
aF0.918
aF0.968
aF0.9
aF0.935
aF0.918
aF0.915
aF0.903
aF0.912
aF0.935
aF0.906
aF0.931
aa(lp31
g14
aF0.852
aF0.821
aF0.929
aF0.842
aF0.857
aF0.9
aF0.867
aF0.983
aF0.847
aF0.966
aF0.873
aF0.881
aF0.877
aF0.881
aF0.873
aF0.9
aF0.881
aF0.852
aF0.857
aF0.815
aF0.881
aF0.873
aF0.836
aF0.871
aF0.949
aa(lp32
g16
aF0.933
aF0.862
aF0.881
aF0.921
aF0.915
aF0.952
aF0.903
aF0.949
aF0.9
aF0.915
aF0.75
aF0.885
aF0.935
aF0.881
aF0.931
aF0.951
aF0.881
aF0.862
aF0.862
aF0.867
aF0.885
aF0.912
aF0.821
aF0.852
aF0.912
aasS'Accuracy'
p33
(lp34
(lp35
g6
aF0.667
aF0.583
aF0.743
aF0.714
aF0.676
aF0.611
aF0.75
aF0.6
aF0.6
aF0.647
aF0.639
aF0.639
aF0.6
aF0.686
aF0.647
aF0.694
aF0.694
aF0.629
aF0.6
aF0.559
aF0.528
aF0.5
aF0.657
aF0.771
aF0.765
aa(lp36
g8
aF0.833
aF0.806
aF0.857
aF0.8
aF0.794
aF0.806
aF0.778
aF0.943
aF0.829
aF0.941
aF0.889
aF0.806
aF0.829
aF0.829
aF0.794
aF0.833
aF0.806
aF0.743
aF0.8
aF0.765
aF0.861
aF0.833
aF0.771
aF0.8
aF0.912
aa(lp37
g10
aF0.333
aF0.25
aF0.429
aF0.457
aF0.441
aF0.417
aF0.389
aF0.429
aF0.543
aF0.324
aF0.417
aF0.417
aF0.343
aF0.343
aF0.5
aF0.583
aF0.361
aF0.371
aF0.314
aF0.5
aF0.25
aF0.333
aF0.4
aF0.486
aF0.529
aa(lp38
g12
aF0.917
aF0.806
aF0.886
aF0.829
aF0.824
aF0.917
aF0.778
aF0.914
aF0.771
aF0.824
aF0.778
aF0.806
aF0.886
aF0.857
aF0.853
aF0.944
aF0.833
aF0.886
aF0.857
aF0.853
aF0.833
aF0.861
aF0.886
aF0.829
aF0.882
aa(lp39
g14
aF0.778
aF0.722
aF0.886
aF0.743
aF0.765
aF0.833
aF0.778
aF0.971
aF0.743
aF0.941
aF0.806
aF0.806
aF0.8
aF0.8
aF0.794
aF0.833
aF0.806
aF0.771
aF0.771
aF0.706
aF0.806
aF0.806
aF0.743
aF0.771
aF0.912
aa(lp40
g16
aF0.889
aF0.778
aF0.8
aF0.857
aF0.853
aF0.917
aF0.833
aF0.914
aF0.829
aF0.853
aF0.611
aF0.806
aF0.886
aF0.8
aF0.882
aF0.917
aF0.806
aF0.771
aF0.771
aF0.765
aF0.806
aF0.861
aF0.714
aF0.743
aF0.853
aass.