(dp0
S'synapse'
p1
(dp2
S'False_alarm'
p3
(lp4
(lp5
S'KNN'
p6
aF0.235
aF0.176
aF0.265
aF0.147
aF0.294
aF0.324
aF0.324
aF0.176
aF0.118
aF0.206
aF0.265
aF0.206
aF0.324
aF0.147
aF0.118
aF0.353
aF0.294
aF0.353
aF0.235
aF0.147
aF0.176
aF0.265
aF0.324
aF0.235
aF0.265
aa(lp7
S'SVM'
p8
aF0.176
aF0.147
aF0.059
aF0.294
aF0.294
aF0.353
aF0.206
aF0.206
aF0.206
aF0.176
aF0.235
aF0.118
aF0.324
aF0.176
aF0.118
aF0.206
aF0.265
aF0.206
aF0.147
aF0.206
aF0.118
aF0.353
aF0.265
aF0.265
aF0.265
aa(lp9
S'NB'
p10
aF0.206
aF0.088
aF0.265
aF0.265
aF0.206
aF0.206
aF0.147
aF0.353
aF0.176
aF0.176
aF0.294
aF0.088
aF0.265
aF0.353
aF0.118
aF0.265
aF0.118
aF0.118
aF0.353
aF0.176
aF0.265
aF0.118
aF0.265
aF0.265
aF0.471
aa(lp11
S'RF'
p12
aF0.147
aF0.029
aF0.118
aF0.147
aF0.088
aF0.118
aF0.206
aF0.147
aF0.059
aF0.147
aF0.029
aF0.147
aF0.147
aF0.118
aF0.206
aF0.176
aF0.118
aF0.029
aF0.029
aF0.059
aF0.059
aF0.265
aF0.206
aF0.059
aF0.118
aa(lp13
S'LR'
p14
aF0.147
aF0.118
aF0.382
aF0.206
aF0.176
aF0.206
aF0.176
aF0.294
aF0.235
aF0.235
aF0.235
aF0.206
aF0.118
aF0.265
aF0.235
aF0.147
aF0.353
aF0.088
aF0.147
aF0.294
aF0.235
aF0.235
aF0.176
aF0.206
aF0.265
aa(lp15
S'DT'
p16
aF0.176
aF0.206
aF0.294
aF0.118
aF0.235
aF0.088
aF0.353
aF0.118
aF0.265
aF0.118
aF0.029
aF0.176
aF0.324
aF0.324
aF0.118
aF0.294
aF0.176
aF0.206
aF0.118
aF0.294
aF0.382
aF0.088
aF0.176
aF0.147
aF0.235
aasS'Recall'
p17
(lp18
(lp19
g6
aF0.444
aF0.765
aF0.529
aF0.647
aF0.706
aF0.556
aF0.765
aF0.706
aF0.765
aF0.588
aF0.333
aF0.588
aF0.647
aF0.706
aF0.765
aF0.667
aF0.647
aF0.353
aF0.765
aF0.765
aF0.556
aF0.588
aF0.882
aF0.647
aF0.765
aa(lp20
g8
aF0.5
aF0.412
aF0.647
aF0.765
aF0.706
aF0.667
aF0.588
aF0.529
aF0.588
aF0.706
aF0.778
aF0.529
aF0.412
aF0.412
aF0.529
aF0.889
aF0.471
aF0.647
aF0.412
aF0.588
aF0.556
aF0.471
aF0.471
aF0.706
aF0.824
aa(lp21
g10
aF0.444
aF0.471
aF0.824
aF0.412
aF0.706
aF0.5
aF0.706
aF0.824
aF0.471
aF0.471
aF0.444
aF0.471
aF0.471
aF0.471
aF0.824
aF0.556
aF0.588
aF0.412
aF0.647
aF0.765
aF0.667
aF0.647
aF0.588
aF0.294
aF0.765
aa(lp22
g12
aF0.556
aF0.471
aF0.529
aF0.471
aF0.118
aF0.5
aF0.647
aF0.471
aF0.706
aF0.588
aF0.333
aF0.412
aF0.588
aF0.529
aF0.353
aF0.333
aF0.294
aF0.588
aF0.471
aF0.412
aF0.667
aF0.706
aF0.471
aF0.235
aF0.412
aa(lp23
g14
aF0.722
aF0.471
aF0.412
aF0.588
aF0.765
aF0.444
aF0.529
aF0.529
aF0.882
aF0.588
aF0.5
aF0.471
aF0.647
aF0.647
aF0.647
aF0.5
aF0.588
aF0.824
aF0.529
aF0.706
aF0.667
aF0.529
aF0.824
aF0.471
aF0.588
aa(lp24
g16
aF0.611
aF0.412
aF0.412
aF0.353
aF0.235
aF0.389
aF0.588
aF0.412
aF0.529
aF0.294
aF0.389
aF0.412
aF0.412
aF0.176
aF0.471
aF0.556
aF0.235
aF0.529
aF0.353
aF0.353
aF0.5
aF0.353
aF0.588
aF0.471
aF0.588
aasS'Precision'
p25
(lp26
(lp27
g6
aF0.5
aF0.684
aF0.5
aF0.688
aF0.545
aF0.476
aF0.542
aF0.667
aF0.765
aF0.588
aF0.4
aF0.588
aF0.5
aF0.706
aF0.765
aF0.5
aF0.524
aF0.333
aF0.619
aF0.722
aF0.625
aF0.526
aF0.577
aF0.579
aF0.591
aa(lp28
g8
aF0.6
aF0.583
aF0.846
aF0.565
aF0.545
aF0.5
aF0.588
aF0.563
aF0.588
aF0.667
aF0.636
aF0.692
aF0.389
aF0.538
aF0.692
aF0.696
aF0.471
aF0.611
aF0.583
aF0.588
aF0.714
aF0.4
aF0.471
aF0.571
aF0.609
aa(lp29
g10
aF0.533
aF0.727
aF0.609
aF0.438
aF0.632
aF0.563
aF0.706
aF0.538
aF0.571
aF0.571
aF0.444
aF0.727
aF0.471
aF0.4
aF0.778
aF0.526
aF0.714
aF0.636
aF0.478
aF0.684
aF0.571
aF0.733
aF0.526
aF0.357
aF0.448
aa(lp30
g12
aF0.667
aF0.889
aF0.692
aF0.615
aF0.4
aF0.692
aF0.611
aF0.615
aF0.857
aF0.667
aF0.857
aF0.583
aF0.667
aF0.692
aF0.462
aF0.5
aF0.556
aF0.909
aF0.889
aF0.778
aF0.857
aF0.571
aF0.533
aF0.667
aF0.636
aa(lp31
g14
aF0.722
aF0.667
aF0.35
aF0.588
aF0.684
aF0.533
aF0.6
aF0.474
aF0.652
aF0.556
aF0.529
aF0.533
aF0.733
aF0.55
aF0.579
aF0.643
aF0.455
aF0.824
aF0.643
aF0.545
aF0.6
aF0.529
aF0.7
aF0.533
aF0.526
aa(lp32
g16
aF0.647
aF0.5
aF0.412
aF0.6
aF0.333
aF0.7
aF0.455
aF0.636
aF0.5
aF0.556
aF0.875
aF0.538
aF0.389
aF0.214
aF0.667
aF0.5
aF0.4
aF0.563
aF0.6
aF0.375
aF0.409
aF0.667
aF0.625
aF0.615
aF0.556
aasS'F_score'
p33
(lp34
(lp35
g6
aF0.471
aF0.722
aF0.514
aF0.667
aF0.615
aF0.513
aF0.634
aF0.686
aF0.765
aF0.588
aF0.364
aF0.588
aF0.564
aF0.706
aF0.765
aF0.571
aF0.579
aF0.343
aF0.684
aF0.743
aF0.588
aF0.556
aF0.698
aF0.611
aF0.667
aa(lp36
g8
aF0.545
aF0.483
aF0.733
aF0.65
aF0.615
aF0.571
aF0.588
aF0.545
aF0.588
aF0.686
aF0.7
aF0.6
aF0.4
aF0.467
aF0.6
aF0.78
aF0.471
aF0.629
aF0.483
aF0.588
aF0.625
aF0.432
aF0.471
aF0.632
aF0.7
aa(lp37
g10
aF0.485
aF0.571
aF0.7
aF0.424
aF0.667
aF0.529
aF0.706
aF0.651
aF0.516
aF0.516
aF0.444
aF0.571
aF0.471
aF0.432
aF0.8
aF0.541
aF0.645
aF0.5
aF0.55
aF0.722
aF0.615
aF0.688
aF0.556
aF0.323
aF0.565
aa(lp38
g12
aF0.606
aF0.615
aF0.6
aF0.533
aF0.182
aF0.581
aF0.629
aF0.533
aF0.774
aF0.625
aF0.48
aF0.483
aF0.625
aF0.6
aF0.4
aF0.4
aF0.385
aF0.714
aF0.615
aF0.538
aF0.75
aF0.632
aF0.5
aF0.348
aF0.5
aa(lp39
g14
aF0.722
aF0.552
aF0.378
aF0.588
aF0.722
aF0.485
aF0.563
aF0.5
aF0.75
aF0.571
aF0.514
aF0.5
aF0.688
aF0.595
aF0.611
aF0.563
aF0.513
aF0.824
aF0.581
aF0.615
aF0.632
aF0.529
aF0.757
aF0.5
aF0.556
aa(lp40
g16
aF0.629
aF0.452
aF0.412
aF0.444
aF0.276
aF0.5
aF0.513
aF0.5
aF0.514
aF0.385
aF0.538
aF0.467
aF0.4
aF0.194
aF0.552
aF0.526
aF0.296
aF0.545
aF0.444
aF0.364
aF0.45
aF0.462
aF0.606
aF0.533
aF0.571
aasS'Accuracy'
p41
(lp42
(lp43
g6
aF0.654
aF0.804
aF0.667
aF0.784
aF0.706
aF0.635
aF0.706
aF0.784
aF0.843
aF0.725
aF0.596
aF0.725
aF0.667
aF0.804
aF0.843
aF0.654
aF0.686
aF0.549
aF0.765
aF0.824
aF0.731
aF0.686
aF0.745
aF0.725
aF0.745
aa(lp44
g8
aF0.712
aF0.706
aF0.843
aF0.725
aF0.706
aF0.654
aF0.725
aF0.706
aF0.725
aF0.784
aF0.769
aF0.765
aF0.588
aF0.686
aF0.765
aF0.827
aF0.647
aF0.745
aF0.706
aF0.725
aF0.769
aF0.588
aF0.647
aF0.725
aF0.765
aa(lp45
g10
aF0.673
aF0.765
aF0.765
aF0.627
aF0.765
aF0.692
aF0.804
aF0.706
aF0.706
aF0.706
aF0.615
aF0.765
aF0.647
aF0.588
aF0.863
aF0.673
aF0.784
aF0.725
aF0.647
aF0.804
aF0.712
aF0.804
aF0.686
aF0.588
aF0.608
aa(lp46
g12
aF0.75
aF0.804
aF0.765
aF0.725
aF0.647
aF0.75
aF0.745
aF0.725
aF0.863
aF0.765
aF0.75
aF0.706
aF0.765
aF0.765
aF0.647
aF0.654
aF0.686
aF0.843
aF0.804
aF0.765
aF0.846
aF0.725
aF0.686
aF0.706
aF0.725
aa(lp47
g14
aF0.808
aF0.745
aF0.549
aF0.725
aF0.804
aF0.673
aF0.725
aF0.647
aF0.804
aF0.706
aF0.673
aF0.686
aF0.804
aF0.706
aF0.725
aF0.731
aF0.627
aF0.882
aF0.745
aF0.706
aF0.731
aF0.686
aF0.824
aF0.686
aF0.686
aa(lp48
g16
aF0.75
aF0.667
aF0.608
aF0.706
aF0.588
aF0.731
aF0.627
aF0.725
aF0.667
aF0.686
aF0.769
aF0.686
aF0.588
aF0.51
aF0.745
aF0.654
aF0.627
aF0.706
aF0.706
aF0.588
aF0.577
aF0.725
aF0.745
aF0.725
aF0.706
aass.