(dp0
S'velocity'
p1
(dp2
S'Recall'
p3
(lp4
(lp5
S'KNN'
p6
aF0.645
aF0.867
aF0.633
aF0.667
aF0.567
aF0.645
aF0.667
aF0.8
aF0.8
aF0.5
aF0.839
aF0.833
aF0.533
aF0.7
aF0.733
aF0.774
aF0.733
aF0.6
aF0.7
aF0.733
aF0.774
aF0.7
aF0.767
aF0.533
aF0.667
aa(lp7
S'SVM'
p8
aF0.839
aF0.8
aF0.667
aF0.8
aF0.667
aF0.645
aF0.767
aF0.833
aF0.8
aF0.8
aF0.71
aF0.767
aF0.733
aF0.733
aF0.833
aF0.71
aF0.933
aF0.633
aF0.7
aF0.767
aF0.742
aF0.667
aF0.833
aF0.667
aF0.867
aa(lp9
S'NB'
p10
aF0.839
aF0.967
aF0.833
aF0.933
aF0.8
aF0.871
aF0.933
aF0.833
aF0.867
aF0.8
aF0.806
aF0.833
aF0.733
aF0.633
aF0.933
aF0.903
aF0.867
aF0.867
aF0.733
aF0.9
aF0.968
aF0.667
aF0.9
aF0.9
aF0.933
aa(lp11
S'RF'
p12
aF0.839
aF0.9
aF0.9
aF0.867
aF0.8
aF0.903
aF0.933
aF0.967
aF0.967
aF0.933
aF0.935
aF0.967
aF0.767
aF0.767
aF0.9
aF0.968
aF0.933
aF0.8
aF0.833
aF0.9
aF0.839
aF0.733
aF0.967
aF0.8
aF0.933
aa(lp13
S'LR'
p14
aF0.871
aF0.833
aF0.7
aF0.767
aF0.7
aF0.71
aF0.733
aF0.833
aF0.8
aF0.8
aF0.774
aF0.867
aF0.733
aF0.7
aF0.8
aF0.742
aF0.933
aF0.7
aF0.767
aF0.833
aF0.742
aF0.7
aF0.867
aF0.733
aF0.933
aa(lp15
S'DT'
p16
aF0.839
aF0.8
aF0.8
aF0.8
aF0.833
aF0.871
aF0.867
aF0.933
aF0.867
aF0.867
aF0.806
aF0.833
aF0.8
aF0.7
aF0.9
aF0.935
aF0.9
aF0.767
aF0.667
aF0.833
aF0.839
aF0.8
aF0.8
aF0.667
aF0.867
aasS'Precision'
p17
(lp18
(lp19
g6
aF0.769
aF0.765
aF0.679
aF0.714
aF0.739
aF0.667
aF0.8
aF0.8
aF0.727
aF0.833
aF0.788
aF0.781
aF0.727
aF0.7
aF0.786
aF0.857
aF0.733
aF0.667
aF0.84
aF0.786
aF0.774
aF0.724
aF0.697
aF0.667
aF0.87
aa(lp20
g8
aF0.839
aF0.667
aF0.87
aF0.706
aF0.8
aF0.833
aF0.793
aF0.735
aF0.8
aF0.828
aF0.733
aF0.821
aF0.846
aF0.759
aF0.781
aF0.759
aF0.778
aF0.704
aF0.875
aF0.767
aF0.821
aF0.909
aF0.781
aF0.667
aF0.839
aa(lp21
g10
aF0.765
aF0.69
aF0.714
aF0.737
aF0.8
aF0.692
aF0.718
aF0.694
aF0.722
aF0.75
aF0.714
aF0.735
aF0.611
aF0.826
aF0.7
aF0.718
aF0.703
aF0.743
aF0.815
aF0.692
aF0.714
aF0.588
aF0.711
aF0.73
aF0.778
aa(lp22
g12
aF0.765
aF0.711
aF0.75
aF0.765
aF0.774
aF0.737
aF0.737
aF0.659
aF0.707
aF0.737
aF0.707
aF0.725
aF0.697
aF0.742
aF0.771
aF0.732
aF0.778
aF0.75
aF0.735
aF0.75
aF0.813
aF0.667
aF0.725
aF0.706
aF0.824
aa(lp23
g14
aF0.871
aF0.714
aF0.808
aF0.719
aF0.84
aF0.846
aF0.88
aF0.735
aF0.828
aF0.828
aF0.727
aF0.867
aF0.88
aF0.778
aF0.706
aF0.767
aF0.8
aF0.75
aF0.885
aF0.714
aF0.821
aF0.84
aF0.788
aF0.688
aF0.848
aa(lp24
g16
aF0.765
aF0.686
aF0.828
aF0.75
aF0.676
aF0.711
aF0.743
aF0.718
aF0.703
aF0.743
aF0.658
aF0.658
aF0.706
aF0.75
aF0.771
aF0.744
aF0.73
aF0.719
aF0.8
aF0.735
aF0.788
aF0.706
aF0.8
aF0.69
aF0.743
aasS'F_score'
p25
(lp26
(lp27
g6
aF0.702
aF0.813
aF0.655
aF0.69
aF0.642
aF0.656
aF0.727
aF0.8
aF0.762
aF0.625
aF0.813
aF0.806
aF0.615
aF0.7
aF0.759
aF0.814
aF0.733
aF0.632
aF0.764
aF0.759
aF0.774
aF0.712
aF0.73
aF0.593
aF0.755
aa(lp28
g8
aF0.839
aF0.727
aF0.755
aF0.75
aF0.727
aF0.727
aF0.78
aF0.781
aF0.8
aF0.814
aF0.721
aF0.793
aF0.786
aF0.746
aF0.806
aF0.733
aF0.848
aF0.667
aF0.778
aF0.767
aF0.78
aF0.769
aF0.806
aF0.667
aF0.852
aa(lp29
g10
aF0.8
aF0.806
aF0.769
aF0.824
aF0.8
aF0.771
aF0.812
aF0.758
aF0.788
aF0.774
aF0.758
aF0.781
aF0.667
aF0.717
aF0.8
aF0.8
aF0.776
aF0.8
aF0.772
aF0.783
aF0.822
aF0.625
aF0.794
aF0.806
aF0.848
aa(lp30
g12
aF0.8
aF0.794
aF0.818
aF0.813
aF0.787
aF0.812
aF0.824
aF0.784
aF0.817
aF0.824
aF0.806
aF0.829
aF0.73
aF0.754
aF0.831
aF0.833
aF0.848
aF0.774
aF0.781
aF0.818
aF0.825
aF0.698
aF0.829
aF0.75
aF0.875
aa(lp31
g14
aF0.871
aF0.769
aF0.75
aF0.742
aF0.764
aF0.772
aF0.8
aF0.781
aF0.814
aF0.814
aF0.75
aF0.867
aF0.8
aF0.737
aF0.75
aF0.754
aF0.862
aF0.724
aF0.821
aF0.769
aF0.78
aF0.764
aF0.825
aF0.71
aF0.889
aa(lp32
g16
aF0.8
aF0.738
aF0.814
aF0.774
aF0.746
aF0.783
aF0.8
aF0.812
aF0.776
aF0.8
aF0.725
aF0.735
aF0.75
aF0.724
aF0.831
aF0.829
aF0.806
aF0.742
aF0.727
aF0.781
aF0.813
aF0.75
aF0.8
aF0.678
aF0.8
aasS'Accuracy'
p33
(lp34
(lp35
g6
aF0.638
aF0.739
aF0.565
aF0.6
aF0.578
aF0.553
aF0.674
aF0.739
aF0.667
aF0.6
aF0.745
aF0.739
aF0.565
aF0.6
aF0.689
aF0.766
aF0.652
aF0.543
aF0.711
aF0.689
aF0.702
aF0.63
aF0.63
aF0.511
aF0.711
aa(lp36
g8
aF0.787
aF0.609
aF0.717
aF0.644
aF0.667
aF0.681
aF0.717
aF0.696
aF0.733
aF0.756
aF0.638
aF0.739
aF0.739
aF0.667
aF0.733
aF0.66
aF0.783
aF0.587
aF0.733
aF0.689
aF0.723
aF0.739
aF0.739
aF0.556
aF0.8
aa(lp37
g10
aF0.723
aF0.696
aF0.674
aF0.733
aF0.733
aF0.66
aF0.717
aF0.652
aF0.689
aF0.689
aF0.66
aF0.696
aF0.522
aF0.667
aF0.689
aF0.702
aF0.674
aF0.717
aF0.711
aF0.667
aF0.723
aF0.478
aF0.696
aF0.711
aF0.778
aa(lp38
g12
aF0.723
aF0.696
aF0.739
aF0.733
aF0.711
aF0.723
aF0.739
aF0.652
aF0.711
aF0.733
aF0.702
aF0.739
aF0.63
aF0.667
aF0.756
aF0.745
aF0.783
aF0.696
aF0.689
aF0.733
aF0.766
aF0.587
aF0.739
aF0.644
aF0.822
aa(lp39
g14
aF0.83
aF0.674
aF0.696
aF0.644
aF0.711
aF0.723
aF0.761
aF0.696
aF0.756
aF0.756
aF0.66
aF0.826
aF0.761
aF0.667
aF0.644
aF0.681
aF0.804
aF0.652
aF0.778
aF0.667
aF0.723
aF0.717
aF0.761
aF0.6
aF0.844
aa(lp40
g16
aF0.723
aF0.63
aF0.761
aF0.689
aF0.622
aF0.681
aF0.717
aF0.717
aF0.667
aF0.711
aF0.596
aF0.609
aF0.652
aF0.644
aF0.756
aF0.745
aF0.717
aF0.652
aF0.667
aF0.689
aF0.745
aF0.652
aF0.739
aF0.578
aF0.711
aass.