(dp0
S'xerces'
p1
(dp2
S'False_alarm'
p3
(lp4
(lp5
S'KNN'
p6
aF0.258
aF0.267
aF0.267
aF0.167
aF0.233
aF0.29
aF0.3
aF0.133
aF0.2
aF0.267
aF0.097
aF0.2
aF0.267
aF0.167
aF0.367
aF0.258
aF0.167
aF0.167
aF0.333
aF0.3
aF0.226
aF0.4
aF0.3
aF0.167
aF0.167
aa(lp7
S'SVM'
p8
aF0.226
aF0.2
aF0.1
aF0.033
aF0.167
aF0.032
aF0.2
aF0.267
aF0.167
aF0.133
aF0.29
aF0.167
aF0.1
aF0.1
aF0.133
aF0.161
aF0.1
aF0.1
aF0.167
aF0.067
aF0.194
aF0.067
aF0.233
aF0.2
aF0.1
aa(lp9
S'NB'
p10
aF0.097
aF0.167
aF0.2
aF0.033
aF0.133
aF0.032
aF0.067
aF0.267
aF0.167
aF0.1
aF0.194
aF0.067
aF0.2
aF0.133
aF0.1
aF0.097
aF0.167
aF0.1
aF0.1
aF0.167
aF0.097
aF0.133
aF0.167
aF0.2
aF0.1
aa(lp11
S'RF'
p12
aF0.097
aF0.2
aF0.267
aF0.2
aF0.233
aF0.194
aF0.2
aF0.267
aF0.167
aF0.233
aF0.161
aF0.3
aF0.167
aF0.2
aF0.133
aF0.194
aF0.233
aF0.2
aF0.133
aF0.2
aF0.258
aF0.233
aF0.1
aF0.1
aF0.267
aa(lp13
S'LR'
p14
aF0.161
aF0.167
aF0.133
aF0.067
aF0.167
aF0.129
aF0.067
aF0.133
aF0.133
aF0.133
aF0.194
aF0.167
aF0.067
aF0.1
aF0.033
aF0.258
aF0.133
aF0.1
aF0.167
aF0.133
aF0.065
aF0.133
aF0.1
aF0.2
aF0.067
aa(lp15
S'DT'
p16
aF0.355
aF0.233
aF0.2
aF0.133
aF0.2
aF0.419
aF0.133
aF0.2
aF0.167
aF0.267
aF0.194
aF0.1
aF0.467
aF0.233
aF0.133
aF0.097
aF0.333
aF0.2
aF0.333
aF0.267
aF0.226
aF0.367
aF0.133
aF0.167
aF0.167
aasS'Recall'
p17
(lp18
(lp19
g6
aF0.83
aF0.727
aF0.874
aF0.805
aF0.667
aF0.75
aF0.841
aF0.736
aF0.747
aF0.736
aF0.795
aF0.727
aF0.885
aF0.77
aF0.828
aF0.83
aF0.818
aF0.736
aF0.793
aF0.747
aF0.784
aF0.807
aF0.724
aF0.701
aF0.655
aa(lp20
g8
aF0.943
aF0.886
aF0.736
aF0.816
aF0.885
aF0.83
aF0.909
aF0.759
aF0.92
aF0.897
aF0.943
aF0.909
aF0.805
aF0.782
aF0.77
aF0.795
aF0.909
aF0.805
aF0.828
aF0.862
aF0.898
aF0.761
aF0.908
aF0.908
aF0.839
aa(lp21
g10
aF0.557
aF0.591
aF0.69
aF0.598
aF0.575
aF0.602
aF0.591
aF0.667
aF0.644
aF0.598
aF0.659
aF0.568
aF0.701
aF0.632
aF0.54
aF0.591
aF0.682
aF0.655
aF0.575
aF0.598
aF0.625
aF0.659
aF0.598
aF0.644
aF0.54
aa(lp22
g12
aF0.955
aF0.966
aF0.954
aF0.92
aF0.966
aF0.943
aF0.92
aF0.943
aF0.943
aF0.931
aF0.909
aF0.966
aF0.931
aF0.931
aF0.989
aF0.92
aF0.943
aF0.966
aF0.897
aF0.954
aF0.989
aF0.909
aF0.931
aF0.92
aF0.943
aa(lp23
g14
aF0.886
aF0.898
aF0.621
aF0.759
aF0.793
aF0.739
aF0.773
aF0.862
aF0.828
aF0.874
aF0.761
aF0.795
aF0.805
aF0.897
aF0.77
aF0.784
aF0.807
aF0.793
aF0.816
aF0.782
aF0.773
aF0.761
aF0.77
aF0.828
aF0.793
aa(lp24
g16
aF0.909
aF0.955
aF0.943
aF0.954
aF0.931
aF0.955
aF0.886
aF0.954
aF0.897
aF0.954
aF0.943
aF0.943
aF0.943
aF0.92
aF0.954
aF0.909
aF0.909
aF0.92
aF0.954
aF0.977
aF0.955
aF0.966
aF0.943
aF0.954
aF0.954
aasS'Precision'
p25
(lp26
(lp27
g6
aF0.901
aF0.889
aF0.905
aF0.933
aF0.892
aF0.88
aF0.892
aF0.941
aF0.915
aF0.889
aF0.959
aF0.914
aF0.906
aF0.931
aF0.867
aF0.901
aF0.935
aF0.928
aF0.873
aF0.878
aF0.908
aF0.855
aF0.875
aF0.924
aF0.919
aa(lp28
g8
aF0.922
aF0.929
aF0.955
aF0.986
aF0.939
aF0.986
aF0.93
aF0.892
aF0.941
aF0.951
aF0.902
aF0.941
aF0.959
aF0.958
aF0.944
aF0.933
aF0.964
aF0.959
aF0.935
aF0.974
aF0.929
aF0.971
aF0.919
aF0.929
aF0.961
aa(lp29
g10
aF0.942
aF0.912
aF0.909
aF0.981
aF0.926
aF0.981
aF0.963
aF0.879
aF0.918
aF0.945
aF0.906
aF0.962
aF0.91
aF0.932
aF0.94
aF0.945
aF0.923
aF0.95
aF0.943
aF0.912
aF0.948
aF0.935
aF0.912
aF0.903
aF0.94
aa(lp30
g12
aF0.966
aF0.934
aF0.912
aF0.93
aF0.923
aF0.933
aF0.931
aF0.911
aF0.943
aF0.92
aF0.941
aF0.904
aF0.942
aF0.931
aF0.956
aF0.931
aF0.922
aF0.933
aF0.951
aF0.933
aF0.916
aF0.92
aF0.964
aF0.964
aF0.911
aa(lp31
g14
aF0.94
aF0.94
aF0.931
aF0.971
aF0.932
aF0.942
aF0.971
aF0.949
aF0.947
aF0.95
aF0.918
aF0.933
aF0.972
aF0.963
aF0.985
aF0.896
aF0.947
aF0.958
aF0.934
aF0.944
aF0.971
aF0.944
aF0.957
aF0.923
aF0.972
aa(lp32
g16
aF0.879
aF0.923
aF0.932
aF0.954
aF0.931
aF0.866
aF0.951
aF0.933
aF0.94
aF0.912
aF0.933
aF0.965
aF0.854
aF0.92
aF0.954
aF0.964
aF0.889
aF0.93
aF0.892
aF0.914
aF0.923
aF0.885
aF0.953
aF0.943
aF0.943
aasS'F_score'
p33
(lp34
(lp35
g6
aF0.864
aF0.8
aF0.889
aF0.864
aF0.763
aF0.81
aF0.865
aF0.826
aF0.823
aF0.805
aF0.87
aF0.81
aF0.895
aF0.843
aF0.847
aF0.864
aF0.873
aF0.821
aF0.831
aF0.807
aF0.841
aF0.83
aF0.792
aF0.797
aF0.765
aa(lp36
g8
aF0.933
aF0.907
aF0.831
aF0.893
aF0.911
aF0.901
aF0.92
aF0.82
aF0.93
aF0.923
aF0.922
aF0.925
aF0.875
aF0.861
aF0.848
aF0.859
aF0.936
aF0.875
aF0.878
aF0.915
aF0.913
aF0.854
aF0.913
aF0.919
aF0.896
aa(lp37
g10
aF0.7
aF0.717
aF0.784
aF0.743
aF0.709
aF0.746
aF0.732
aF0.758
aF0.757
aF0.732
aF0.763
aF0.714
aF0.792
aF0.753
aF0.686
aF0.727
aF0.784
aF0.776
aF0.714
aF0.722
aF0.753
aF0.773
aF0.722
aF0.752
aF0.686
aa(lp38
g12
aF0.96
aF0.95
aF0.933
aF0.925
aF0.944
aF0.938
aF0.926
aF0.927
aF0.943
aF0.926
aF0.925
aF0.934
aF0.936
aF0.931
aF0.972
aF0.926
aF0.933
aF0.949
aF0.923
aF0.943
aF0.951
aF0.914
aF0.947
aF0.941
aF0.927
aa(lp39
g14
aF0.912
aF0.919
aF0.745
aF0.852
aF0.857
aF0.828
aF0.861
aF0.904
aF0.883
aF0.91
aF0.832
aF0.859
aF0.881
aF0.929
aF0.865
aF0.836
aF0.871
aF0.868
aF0.871
aF0.855
aF0.861
aF0.843
aF0.854
aF0.873
aF0.873
aa(lp40
g16
aF0.894
aF0.939
aF0.937
aF0.954
aF0.931
aF0.908
aF0.918
aF0.943
aF0.918
aF0.933
aF0.938
aF0.954
aF0.896
aF0.92
aF0.954
aF0.936
aF0.899
aF0.925
aF0.922
aF0.944
aF0.939
aF0.924
aF0.948
aF0.949
aF0.949
aasS'Accuracy'
p41
(lp42
(lp43
g6
aF0.807
aF0.729
aF0.838
aF0.812
aF0.692
aF0.739
aF0.805
aF0.769
aF0.761
aF0.735
aF0.824
aF0.746
aF0.846
aF0.786
aF0.778
aF0.807
aF0.822
aF0.761
aF0.761
aF0.735
aF0.782
aF0.754
aF0.718
aF0.735
aF0.701
aa(lp44
g8
aF0.899
aF0.864
aF0.778
aF0.855
aF0.872
aF0.866
aF0.881
aF0.752
aF0.897
aF0.889
aF0.882
aF0.89
aF0.829
aF0.812
aF0.795
aF0.807
aF0.907
aF0.829
aF0.829
aF0.88
aF0.874
aF0.805
aF0.872
aF0.88
aF0.855
aa(lp45
g10
aF0.647
aF0.653
aF0.718
aF0.692
aF0.65
aF0.697
aF0.678
aF0.684
aF0.692
aF0.675
aF0.697
aF0.661
aF0.726
aF0.692
aF0.632
aF0.672
aF0.72
aF0.718
aF0.658
aF0.658
aF0.697
aF0.712
aF0.658
aF0.684
aF0.632
aa(lp46
g12
aF0.941
aF0.924
aF0.897
aF0.889
aF0.915
aF0.908
aF0.89
aF0.889
aF0.915
aF0.889
aF0.891
aF0.898
aF0.906
aF0.897
aF0.957
aF0.891
aF0.898
aF0.923
aF0.889
aF0.915
aF0.924
aF0.873
aF0.923
aF0.915
aF0.889
aa(lp47
g14
aF0.874
aF0.881
aF0.684
aF0.803
aF0.803
aF0.773
aF0.814
aF0.863
aF0.838
aF0.872
aF0.773
aF0.805
aF0.838
aF0.897
aF0.821
aF0.773
aF0.822
aF0.821
aF0.821
aF0.803
aF0.815
aF0.788
aF0.803
aF0.821
aF0.829
aa(lp48
g16
aF0.84
aF0.907
aF0.906
aF0.932
aF0.897
aF0.857
aF0.881
aF0.915
aF0.88
aF0.897
aF0.908
aF0.932
aF0.838
aF0.88
aF0.932
aF0.908
aF0.847
aF0.889
aF0.88
aF0.915
aF0.908
aF0.881
aF0.923
aF0.923
aF0.923
aass.