(dp0
S'arc'
p1
(dp2
S'AUC'
p3
(lp4
(lp5
S'KNN'
p6
aF0.0
aF0.0
aF0.0
aF0.024
aF0.0
aF0.095
aF0.0
aF0.0
aF0.0
aF0.0
aF0.0
aF0.0
aF0.0
aF0.024
aF0.0
aa(lp7
S'SVM'
p8
aF0.0
aF0.048
aF0.0
aF0.0
aF0.0
aF0.0
aF0.071
aF0.0
aF0.049
aF0.024
aF0.048
aF0.0
aF0.024
aF0.073
aF0.0
aa(lp9
S'NB'
p10
aF0.262
aF0.381
aF0.39
aF0.415
aF0.39
aF0.143
aF0.405
aF0.415
aF0.293
aF0.341
aF0.119
aF0.333
aF0.268
aF0.488
aF0.439
aa(lp11
S'RF'
p12
aF0.048
aF0.024
aF0.0
aF0.0
aF0.049
aF0.0
aF0.048
aF0.049
aF0.049
aF0.0
aF0.071
aF0.0
aF0.049
aF0.0
aF0.0
aa(lp13
S'LR'
p14
aF0.0
aF0.024
aF0.098
aF0.0
aF0.0
aF0.0
aF0.0
aF0.0
aF0.0
aF0.0
aF0.0
aF0.024
aF0.0
aF0.024
aF0.0
aa(lp15
S'DT'
p16
aF0.143
aF0.095
aF0.122
aF0.098
aF0.122
aF0.095
aF0.0
aF0.0
aF0.122
aF0.0
aF0.167
aF0.0
aF0.0
aF0.122
aF0.049
aasS'False_alarm'
p17
(lp18
(lp19
g6
aF0.0
aF0.0
aF0.0
aF0.024
aF0.0
aF0.095
aF0.0
aF0.0
aF0.0
aF0.0
aF0.0
aF0.0
aF0.0
aF0.024
aF0.0
aa(lp20
g8
aF0.0
aF0.048
aF0.0
aF0.0
aF0.0
aF0.0
aF0.071
aF0.0
aF0.049
aF0.024
aF0.048
aF0.0
aF0.024
aF0.073
aF0.0
aa(lp21
g10
aF0.262
aF0.381
aF0.39
aF0.415
aF0.39
aF0.143
aF0.405
aF0.415
aF0.293
aF0.341
aF0.119
aF0.333
aF0.268
aF0.488
aF0.439
aa(lp22
g12
aF0.048
aF0.024
aF0.0
aF0.0
aF0.049
aF0.0
aF0.048
aF0.049
aF0.049
aF0.0
aF0.071
aF0.0
aF0.049
aF0.0
aF0.0
aa(lp23
g14
aF0.0
aF0.024
aF0.098
aF0.0
aF0.0
aF0.0
aF0.0
aF0.0
aF0.0
aF0.0
aF0.0
aF0.024
aF0.0
aF0.024
aF0.0
aa(lp24
g16
aF0.143
aF0.095
aF0.122
aF0.098
aF0.122
aF0.095
aF0.0
aF0.0
aF0.122
aF0.0
aF0.167
aF0.0
aF0.0
aF0.122
aF0.049
aasS'Recall'
p25
(lp26
(lp27
g6
aF0.167
aF0.0
aF0.0
aF0.2
aF0.0
aF0.333
aF0.0
aF0.0
aF0.0
aF0.0
aF0.0
aF0.0
aF0.0
aF0.2
aF0.0
aa(lp28
g8
aF0.0
aF0.5
aF0.0
aF0.0
aF0.0
aF0.0
aF0.333
aF0.0
aF0.2
aF0.2
aF0.167
aF0.0
aF0.2
aF0.2
aF0.4
aa(lp29
g10
aF0.333
aF0.333
aF0.8
aF0.6
aF0.8
aF0.5
aF0.667
aF0.6
aF0.6
aF0.6
aF0.333
aF0.667
aF0.6
aF0.8
aF0.8
aa(lp30
g12
aF0.333
aF0.167
aF0.0
aF0.2
aF0.2
aF0.0
aF0.333
aF0.4
aF0.4
aF0.0
aF0.333
aF0.0
aF0.2
aF0.0
aF0.0
aa(lp31
g14
aF0.167
aF0.167
aF0.4
aF0.0
aF0.2
aF0.0
aF0.0
aF0.4
aF0.0
aF0.4
aF0.0
aF0.333
aF0.2
aF0.2
aF0.0
aa(lp32
g16
aF0.167
aF0.5
aF0.2
aF0.2
aF0.8
aF0.333
aF0.0
aF0.0
aF0.8
aF0.0
aF0.167
aF0.0
aF0.0
aF1.0
aF0.8
aasS'Precision'
p33
(lp34
(lp35
g6
aF1.0
aF0.0
aF0.0
aF0.5
aF0.0
aF0.333
aF0.0
aF0.0
aF0.0
aF0.0
aF0.0
aF0.0
aF0.0
aF0.5
aF0.0
aa(lp36
g8
aF0.0
aF0.6
aF0.0
aF0.0
aF0.0
aF0.0
aF0.4
aF0.0
aF0.333
aF0.5
aF0.333
aF0.0
aF0.5
aF0.25
aF1.0
aa(lp37
g10
aF0.154
aF0.111
aF0.2
aF0.15
aF0.2
aF0.333
aF0.19
aF0.15
aF0.2
aF0.176
aF0.286
aF0.222
aF0.214
aF0.167
aF0.182
aa(lp38
g12
aF0.5
aF0.5
aF0.0
aF1.0
aF0.333
aF0.0
aF0.5
aF0.5
aF0.5
aF0.0
aF0.4
aF0.0
aF0.333
aF0.0
aF0.0
aa(lp39
g14
aF1.0
aF0.5
aF0.333
aF0.0
aF1.0
aF0.0
aF0.0
aF1.0
aF0.0
aF1.0
aF0.0
aF0.667
aF1.0
aF0.5
aF0.0
aa(lp40
g16
aF0.143
aF0.429
aF0.167
aF0.2
aF0.444
aF0.333
aF0.0
aF0.0
aF0.444
aF0.0
aF0.125
aF0.0
aF0.0
aF0.5
aF0.667
aasS'F_score'
p41
(lp42
(lp43
g6
aF0.286
aF0.0
aF0.0
aF0.286
aF0.0
aF0.333
aF0.0
aF0.0
aF0.0
aF0.0
aF0.0
aF0.0
aF0.0
aF0.286
aF0.0
aa(lp44
g8
aF0.0
aF0.545
aF0.0
aF0.0
aF0.0
aF0.0
aF0.364
aF0.0
aF0.25
aF0.286
aF0.222
aF0.0
aF0.286
aF0.222
aF0.571
aa(lp45
g10
aF0.211
aF0.167
aF0.32
aF0.24
aF0.32
aF0.4
aF0.296
aF0.24
aF0.3
aF0.273
aF0.308
aF0.333
aF0.316
aF0.276
aF0.296
aa(lp46
g12
aF0.4
aF0.25
aF0.0
aF0.333
aF0.25
aF0.0
aF0.4
aF0.444
aF0.444
aF0.0
aF0.364
aF0.0
aF0.25
aF0.0
aF0.0
aa(lp47
g14
aF0.286
aF0.25
aF0.364
aF0.0
aF0.333
aF0.0
aF0.0
aF0.571
aF0.0
aF0.571
aF0.0
aF0.444
aF0.333
aF0.286
aF0.0
aa(lp48
g16
aF0.154
aF0.462
aF0.182
aF0.2
aF0.571
aF0.333
aF0.0
aF0.0
aF0.571
aF0.0
aF0.143
aF0.0
aF0.0
aF0.667
aF0.727
aasS'Accuracy'
p49
(lp50
(lp51
g6
aF0.896
aF0.0
aF0.0
aF0.891
aF0.0
aF0.833
aF0.0
aF0.0
aF0.0
aF0.0
aF0.0
aF0.0
aF0.0
aF0.891
aF0.0
aa(lp52
g8
aF0.0
aF0.896
aF0.0
aF0.0
aF0.0
aF0.0
aF0.854
aF0.0
aF0.87
aF0.891
aF0.854
aF0.0
aF0.891
aF0.848
aF0.935
aa(lp53
g10
aF0.688
aF0.583
aF0.63
aF0.587
aF0.63
aF0.813
aF0.604
aF0.587
aF0.696
aF0.652
aF0.813
aF0.667
aF0.717
aF0.543
aF0.587
aa(lp54
g12
aF0.875
aF0.875
aF0.0
aF0.913
aF0.87
aF0.0
aF0.875
aF0.891
aF0.891
aF0.0
aF0.854
aF0.0
aF0.87
aF0.0
aF0.0
aa(lp55
g14
aF0.896
aF0.875
aF0.848
aF0.0
aF0.913
aF0.0
aF0.0
aF0.935
aF0.0
aF0.935
aF0.0
aF0.896
aF0.913
aF0.891
aF0.0
aa(lp56
g16
aF0.771
aF0.854
aF0.804
aF0.826
aF0.87
aF0.833
aF0.0
aF0.0
aF0.87
aF0.0
aF0.75
aF0.0
aF0.0
aF0.891
aF0.935
aass.