(dp0
S'camel'
p1
(dp2
S'AUC'
p3
(lp4
(lp5
S'KNN'
p6
aF0.0
aF0.0
aF0.0
aF0.0
aF0.0
aF0.0
aF0.0
aF0.0
aF0.0
aF0.0
aF0.0
aF0.0
aF0.0
aF0.0
aF0.0
aa(lp7
S'SVM'
p8
aF0.0
aF0.0
aF0.0
aF0.0
aF0.0
aF0.0
aF0.0
aF0.0
aF0.0
aF0.0
aF0.0
aF0.0
aF0.0
aF0.0
aF0.0
aa(lp9
S'NB'
p10
aF0.03
aF0.108
aF0.0
aF0.0
aF0.108
aF0.015
aF0.077
aF0.046
aF0.0
aF0.138
aF0.0
aF0.077
aF0.046
aF0.0
aF0.154
aa(lp11
S'RF'
p12
aF0.0
aF0.0
aF0.0
aF0.0
aF0.0
aF0.0
aF0.0
aF0.0
aF0.0
aF0.0
aF0.0
aF0.0
aF0.0
aF0.0
aF0.0
aa(lp13
S'LR'
p14
aF0.0
aF0.0
aF0.0
aF0.0
aF0.0
aF0.0
aF0.0
aF0.0
aF0.0
aF0.0
aF0.015
aF0.0
aF0.0
aF0.0
aF0.0
aa(lp15
S'DT'
p16
aF0.0
aF0.0
aF0.0
aF0.0
aF0.0
aF0.0
aF0.077
aF0.0
aF0.0
aF0.0
aF0.0
aF0.031
aF0.0
aF0.0
aF0.0
aasS'False_alarm'
p17
(lp18
(lp19
g6
aF0.0
aF0.0
aF0.0
aF0.0
aF0.0
aF0.0
aF0.0
aF0.0
aF0.0
aF0.0
aF0.0
aF0.0
aF0.0
aF0.0
aF0.0
aa(lp20
g8
aF0.0
aF0.0
aF0.0
aF0.0
aF0.0
aF0.0
aF0.0
aF0.0
aF0.0
aF0.0
aF0.0
aF0.0
aF0.0
aF0.0
aF0.0
aa(lp21
g10
aF0.03
aF0.108
aF0.0
aF0.0
aF0.108
aF0.015
aF0.077
aF0.046
aF0.0
aF0.138
aF0.0
aF0.077
aF0.046
aF0.0
aF0.154
aa(lp22
g12
aF0.0
aF0.0
aF0.0
aF0.0
aF0.0
aF0.0
aF0.0
aF0.0
aF0.0
aF0.0
aF0.0
aF0.0
aF0.0
aF0.0
aF0.0
aa(lp23
g14
aF0.0
aF0.0
aF0.0
aF0.0
aF0.0
aF0.0
aF0.0
aF0.0
aF0.0
aF0.0
aF0.015
aF0.0
aF0.0
aF0.0
aF0.0
aa(lp24
g16
aF0.0
aF0.0
aF0.0
aF0.0
aF0.0
aF0.0
aF0.077
aF0.0
aF0.0
aF0.0
aF0.0
aF0.031
aF0.0
aF0.0
aF0.0
aasS'Recall'
p25
(lp26
(lp27
g6
aF0.0
aF0.0
aF0.0
aF0.0
aF0.0
aF0.0
aF0.0
aF0.0
aF0.0
aF0.0
aF0.0
aF0.0
aF0.0
aF0.0
aF0.0
aa(lp28
g8
aF0.0
aF0.0
aF0.0
aF0.0
aF0.0
aF0.0
aF0.0
aF0.0
aF0.0
aF0.0
aF0.0
aF0.0
aF0.0
aF0.0
aF0.0
aa(lp29
g10
aF0.667
aF0.667
aF0.0
aF0.0
aF0.5
aF0.667
aF0.667
aF0.333
aF0.0
aF0.5
aF0.0
aF0.667
aF0.333
aF0.0
aF0.5
aa(lp30
g12
aF0.0
aF0.0
aF0.0
aF0.0
aF0.0
aF0.0
aF0.0
aF0.0
aF0.0
aF0.0
aF0.0
aF0.0
aF0.0
aF0.0
aF0.0
aa(lp31
g14
aF0.0
aF0.0
aF0.0
aF0.0
aF0.0
aF0.0
aF0.0
aF0.0
aF0.0
aF0.0
aF0.333
aF0.0
aF0.0
aF0.0
aF0.0
aa(lp32
g16
aF0.0
aF0.0
aF0.0
aF0.0
aF0.0
aF0.0
aF0.333
aF0.0
aF0.0
aF0.0
aF0.0
aF0.333
aF0.0
aF0.0
aF0.0
aasS'Precision'
p33
(lp34
(lp35
g6
aF0.0
aF0.0
aF0.0
aF0.0
aF0.0
aF0.0
aF0.0
aF0.0
aF0.0
aF0.0
aF0.0
aF0.0
aF0.0
aF0.0
aF0.0
aa(lp36
g8
aF0.0
aF0.0
aF0.0
aF0.0
aF0.0
aF0.0
aF0.0
aF0.0
aF0.0
aF0.0
aF0.0
aF0.0
aF0.0
aF0.0
aF0.0
aa(lp37
g10
aF0.5
aF0.222
aF0.0
aF0.0
aF0.125
aF0.667
aF0.286
aF0.25
aF0.0
aF0.1
aF0.0
aF0.286
aF0.25
aF0.0
aF0.091
aa(lp38
g12
aF0.0
aF0.0
aF0.0
aF0.0
aF0.0
aF0.0
aF0.0
aF0.0
aF0.0
aF0.0
aF0.0
aF0.0
aF0.0
aF0.0
aF0.0
aa(lp39
g14
aF0.0
aF0.0
aF0.0
aF0.0
aF0.0
aF0.0
aF0.0
aF0.0
aF0.0
aF0.0
aF0.5
aF0.0
aF0.0
aF0.0
aF0.0
aa(lp40
g16
aF0.0
aF0.0
aF0.0
aF0.0
aF0.0
aF0.0
aF0.167
aF0.0
aF0.0
aF0.0
aF0.0
aF0.333
aF0.0
aF0.0
aF0.0
aasS'F_score'
p41
(lp42
(lp43
g6
aF0.0
aF0.0
aF0.0
aF0.0
aF0.0
aF0.0
aF0.0
aF0.0
aF0.0
aF0.0
aF0.0
aF0.0
aF0.0
aF0.0
aF0.0
aa(lp44
g8
aF0.0
aF0.0
aF0.0
aF0.0
aF0.0
aF0.0
aF0.0
aF0.0
aF0.0
aF0.0
aF0.0
aF0.0
aF0.0
aF0.0
aF0.0
aa(lp45
g10
aF0.571
aF0.333
aF0.0
aF0.0
aF0.2
aF0.667
aF0.4
aF0.286
aF0.0
aF0.167
aF0.0
aF0.4
aF0.286
aF0.0
aF0.154
aa(lp46
g12
aF0.0
aF0.0
aF0.0
aF0.0
aF0.0
aF0.0
aF0.0
aF0.0
aF0.0
aF0.0
aF0.0
aF0.0
aF0.0
aF0.0
aF0.0
aa(lp47
g14
aF0.0
aF0.0
aF0.0
aF0.0
aF0.0
aF0.0
aF0.0
aF0.0
aF0.0
aF0.0
aF0.4
aF0.0
aF0.0
aF0.0
aF0.0
aa(lp48
g16
aF0.0
aF0.0
aF0.0
aF0.0
aF0.0
aF0.0
aF0.222
aF0.0
aF0.0
aF0.0
aF0.0
aF0.333
aF0.0
aF0.0
aF0.0
aasS'Accuracy'
p49
(lp50
(lp51
g6
aF0.0
aF0.0
aF0.0
aF0.0
aF0.0
aF0.0
aF0.0
aF0.0
aF0.0
aF0.0
aF0.0
aF0.0
aF0.0
aF0.0
aF0.0
aa(lp52
g8
aF0.0
aF0.0
aF0.0
aF0.0
aF0.0
aF0.0
aF0.0
aF0.0
aF0.0
aF0.0
aF0.0
aF0.0
aF0.0
aF0.0
aF0.0
aa(lp53
g10
aF0.957
aF0.882
aF0.0
aF0.0
aF0.881
aF0.971
aF0.912
aF0.926
aF0.0
aF0.851
aF0.0
aF0.912
aF0.926
aF0.0
aF0.836
aa(lp54
g12
aF0.0
aF0.0
aF0.0
aF0.0
aF0.0
aF0.0
aF0.0
aF0.0
aF0.0
aF0.0
aF0.0
aF0.0
aF0.0
aF0.0
aF0.0
aa(lp55
g14
aF0.0
aF0.0
aF0.0
aF0.0
aF0.0
aF0.0
aF0.0
aF0.0
aF0.0
aF0.0
aF0.957
aF0.0
aF0.0
aF0.0
aF0.0
aa(lp56
g16
aF0.0
aF0.0
aF0.0
aF0.0
aF0.0
aF0.0
aF0.897
aF0.0
aF0.0
aF0.0
aF0.0
aF0.941
aF0.0
aF0.0
aF0.0
aass.