(dp0
S'ivy'
p1
(dp2
S'AUC'
p3
(lp4
(lp5
S'KNN'
p6
aF0.032
aF0.0
aF0.0
aF0.016
aF0.0
aF0.0
aF0.0
aF0.0
aF0.016
aF0.016
aF0.016
aF0.0
aF0.032
aF0.032
aF0.0
aa(lp7
S'SVM'
p8
aF0.016
aF0.016
aF0.048
aF0.0
aF0.016
aF0.032
aF0.0
aF0.016
aF0.0
aF0.016
aF0.016
aF0.0
aF0.032
aF0.0
aF0.0
aa(lp9
S'NB'
p10
aF0.063
aF0.159
aF0.129
aF0.129
aF0.161
aF0.127
aF0.127
aF0.161
aF0.032
aF0.177
aF0.095
aF0.095
aF0.129
aF0.065
aF0.129
aa(lp11
S'RF'
p12
aF0.0
aF0.0
aF0.0
aF0.016
aF0.032
aF0.032
aF0.0
aF0.0
aF0.032
aF0.0
aF0.079
aF0.016
aF0.016
aF0.0
aF0.065
aa(lp13
S'LR'
p14
aF0.016
aF0.016
aF0.048
aF0.016
aF0.032
aF0.048
aF0.0
aF0.0
aF0.032
aF0.0
aF0.032
aF0.0
aF0.016
aF0.016
aF0.032
aa(lp15
S'DT'
p16
aF0.079
aF0.143
aF0.065
aF0.113
aF0.048
aF0.048
aF0.111
aF0.097
aF0.065
aF0.081
aF0.111
aF0.111
aF0.113
aF0.065
aF0.145
aasS'False_alarm'
p17
(lp18
(lp19
g6
aF0.032
aF0.0
aF0.0
aF0.016
aF0.0
aF0.0
aF0.0
aF0.0
aF0.016
aF0.016
aF0.016
aF0.0
aF0.032
aF0.032
aF0.0
aa(lp20
g8
aF0.016
aF0.016
aF0.048
aF0.0
aF0.016
aF0.032
aF0.0
aF0.016
aF0.0
aF0.016
aF0.016
aF0.0
aF0.032
aF0.0
aF0.0
aa(lp21
g10
aF0.063
aF0.159
aF0.129
aF0.129
aF0.161
aF0.127
aF0.127
aF0.161
aF0.032
aF0.177
aF0.095
aF0.095
aF0.129
aF0.065
aF0.129
aa(lp22
g12
aF0.0
aF0.0
aF0.0
aF0.016
aF0.032
aF0.032
aF0.0
aF0.0
aF0.032
aF0.0
aF0.079
aF0.016
aF0.016
aF0.0
aF0.065
aa(lp23
g14
aF0.016
aF0.016
aF0.048
aF0.016
aF0.032
aF0.048
aF0.0
aF0.0
aF0.032
aF0.0
aF0.032
aF0.0
aF0.016
aF0.016
aF0.032
aa(lp24
g16
aF0.079
aF0.143
aF0.065
aF0.113
aF0.048
aF0.048
aF0.111
aF0.097
aF0.065
aF0.081
aF0.111
aF0.111
aF0.113
aF0.065
aF0.145
aasS'Recall'
p25
(lp26
(lp27
g6
aF0.125
aF0.0
aF0.0
aF0.125
aF0.0
aF0.0
aF0.0
aF0.0
aF0.125
aF0.125
aF0.125
aF0.0
aF0.125
aF0.125
aF0.25
aa(lp28
g8
aF0.125
aF0.25
aF0.5
aF0.0
aF0.125
aF0.125
aF0.125
aF0.125
aF0.0
aF0.25
aF0.25
aF0.375
aF0.125
aF0.125
aF0.0
aa(lp29
g10
aF0.375
aF0.25
aF0.375
aF0.375
aF0.5
aF0.5
aF0.375
aF0.375
aF0.375
aF0.125
aF0.625
aF0.625
aF0.375
aF0.25
aF0.125
aa(lp30
g12
aF0.0
aF0.0
aF0.125
aF0.375
aF0.25
aF0.25
aF0.375
aF0.0
aF0.125
aF0.0
aF0.125
aF0.125
aF0.125
aF0.5
aF0.5
aa(lp31
g14
aF0.125
aF0.25
aF0.5
aF0.25
aF0.125
aF0.375
aF0.125
aF0.125
aF0.375
aF0.0
aF0.25
aF0.0
aF0.25
aF0.25
aF0.125
aa(lp32
g16
aF0.375
aF0.25
aF0.375
aF0.375
aF0.25
aF0.25
aF0.125
aF0.375
aF0.125
aF0.125
aF0.25
aF0.375
aF0.125
aF0.25
aF0.5
aasS'Precision'
p33
(lp34
(lp35
g6
aF0.333
aF0.0
aF0.0
aF0.5
aF0.0
aF0.0
aF0.0
aF0.0
aF0.5
aF0.5
aF0.5
aF0.0
aF0.333
aF0.333
aF1.0
aa(lp36
g8
aF0.5
aF0.667
aF0.571
aF0.0
aF0.5
aF0.333
aF1.0
aF0.5
aF0.0
aF0.667
aF0.667
aF1.0
aF0.333
aF1.0
aF0.0
aa(lp37
g10
aF0.429
aF0.167
aF0.273
aF0.273
aF0.286
aF0.333
aF0.273
aF0.231
aF0.6
aF0.083
aF0.455
aF0.455
aF0.273
aF0.333
aF0.111
aa(lp38
g12
aF0.0
aF0.0
aF1.0
aF0.75
aF0.5
aF0.5
aF1.0
aF0.0
aF0.333
aF0.0
aF0.167
aF0.5
aF0.5
aF1.0
aF0.5
aa(lp39
g14
aF0.5
aF0.667
aF0.571
aF0.667
aF0.333
aF0.5
aF1.0
aF1.0
aF0.6
aF0.0
aF0.5
aF0.0
aF0.667
aF0.667
aF0.333
aa(lp40
g16
aF0.375
aF0.182
aF0.429
aF0.3
aF0.4
aF0.4
aF0.125
aF0.333
aF0.2
aF0.167
aF0.222
aF0.3
aF0.125
aF0.333
aF0.308
aasS'F_score'
p41
(lp42
(lp43
g6
aF0.182
aF0.0
aF0.0
aF0.2
aF0.0
aF0.0
aF0.0
aF0.0
aF0.2
aF0.2
aF0.2
aF0.0
aF0.182
aF0.182
aF0.4
aa(lp44
g8
aF0.2
aF0.364
aF0.533
aF0.0
aF0.2
aF0.182
aF0.222
aF0.2
aF0.0
aF0.364
aF0.364
aF0.545
aF0.182
aF0.222
aF0.0
aa(lp45
g10
aF0.4
aF0.2
aF0.316
aF0.316
aF0.364
aF0.4
aF0.316
aF0.286
aF0.462
aF0.1
aF0.526
aF0.526
aF0.316
aF0.286
aF0.118
aa(lp46
g12
aF0.0
aF0.0
aF0.222
aF0.5
aF0.333
aF0.333
aF0.545
aF0.0
aF0.182
aF0.0
aF0.143
aF0.2
aF0.2
aF0.667
aF0.5
aa(lp47
g14
aF0.2
aF0.364
aF0.533
aF0.364
aF0.182
aF0.429
aF0.222
aF0.222
aF0.462
aF0.0
aF0.333
aF0.0
aF0.364
aF0.364
aF0.182
aa(lp48
g16
aF0.375
aF0.211
aF0.4
aF0.333
aF0.308
aF0.308
aF0.125
aF0.353
aF0.154
aF0.143
aF0.235
aF0.333
aF0.125
aF0.286
aF0.381
aasS'Accuracy'
p49
(lp50
(lp51
g6
aF0.873
aF0.0
aF0.0
aF0.886
aF0.0
aF0.0
aF0.0
aF0.0
aF0.886
aF0.886
aF0.887
aF0.0
aF0.871
aF0.871
aF0.914
aa(lp52
g8
aF0.887
aF0.901
aF0.9
aF0.0
aF0.886
aF0.873
aF0.901
aF0.886
aF0.0
aF0.9
aF0.901
aF0.93
aF0.871
aF0.9
aF0.0
aa(lp53
g10
aF0.873
aF0.775
aF0.814
aF0.814
aF0.8
aF0.831
aF0.817
aF0.786
aF0.9
aF0.743
aF0.873
aF0.873
aF0.814
aF0.857
aF0.786
aa(lp54
g12
aF0.0
aF0.0
aF0.9
aF0.914
aF0.886
aF0.887
aF0.93
aF0.0
aF0.871
aF0.0
aF0.831
aF0.887
aF0.886
aF0.943
aF0.886
aa(lp55
g14
aF0.887
aF0.901
aF0.9
aF0.9
aF0.871
aF0.887
aF0.901
aF0.9
aF0.9
aF0.0
aF0.887
aF0.0
aF0.9
aF0.9
aF0.871
aa(lp56
g16
aF0.859
aF0.789
aF0.871
aF0.829
aF0.871
aF0.873
aF0.803
aF0.843
aF0.843
aF0.829
aF0.817
aF0.831
aF0.8
aF0.857
aF0.814
aass.