(dp0
S'log4j'
p1
(dp2
S'AUC'
p3
(lp4
(lp5
S'KNN'
p6
aF1.0
aF1.0
aF1.0
aF1.0
aF1.0
aF1.0
aF1.0
aF1.0
aF1.0
aF1.0
aF1.0
aF1.0
aF1.0
aF1.0
aF1.0
aa(lp7
S'SVM'
p8
aF1.0
aF1.0
aF1.0
aF1.0
aF1.0
aF1.0
aF1.0
aF1.0
aF0.667
aF1.0
aF1.0
aF1.0
aF1.0
aF1.0
aF1.0
aa(lp9
S'NB'
p10
aF0.5
aF0.333
aF0.0
aF0.0
aF0.0
aF0.5
aF0.333
aF0.333
aF0.0
aF0.0
aF0.0
aF0.333
aF0.0
aF0.667
aF0.0
aa(lp11
S'RF'
p12
aF1.0
aF0.333
aF0.667
aF1.0
aF1.0
aF1.0
aF0.667
aF0.333
aF0.667
aF0.667
aF0.75
aF1.0
aF0.667
aF0.667
aF1.0
aa(lp13
S'LR'
p14
aF1.0
aF1.0
aF1.0
aF0.667
aF1.0
aF0.75
aF1.0
aF1.0
aF1.0
aF1.0
aF0.75
aF1.0
aF1.0
aF1.0
aF1.0
aa(lp15
S'DT'
p16
aF0.75
aF1.0
aF0.667
aF0.333
aF0.333
aF0.25
aF0.667
aF0.333
aF0.333
aF1.0
aF0.25
aF1.0
aF1.0
aF0.333
aF0.667
aasS'False_alarm'
p17
(lp18
(lp19
g6
aF1.0
aF1.0
aF1.0
aF1.0
aF1.0
aF1.0
aF1.0
aF1.0
aF1.0
aF1.0
aF1.0
aF1.0
aF1.0
aF1.0
aF1.0
aa(lp20
g8
aF1.0
aF1.0
aF1.0
aF1.0
aF1.0
aF1.0
aF1.0
aF1.0
aF0.667
aF1.0
aF1.0
aF1.0
aF1.0
aF1.0
aF1.0
aa(lp21
g10
aF0.5
aF0.333
aF0.0
aF0.0
aF0.0
aF0.5
aF0.333
aF0.333
aF0.0
aF0.0
aF0.0
aF0.333
aF0.0
aF0.667
aF0.0
aa(lp22
g12
aF1.0
aF0.333
aF0.667
aF1.0
aF1.0
aF1.0
aF0.667
aF0.333
aF0.667
aF0.667
aF0.75
aF1.0
aF0.667
aF0.667
aF1.0
aa(lp23
g14
aF1.0
aF1.0
aF1.0
aF0.667
aF1.0
aF0.75
aF1.0
aF1.0
aF1.0
aF1.0
aF0.75
aF1.0
aF1.0
aF1.0
aF1.0
aa(lp24
g16
aF0.75
aF1.0
aF0.667
aF0.333
aF0.333
aF0.25
aF0.667
aF0.333
aF0.333
aF1.0
aF0.25
aF1.0
aF1.0
aF0.333
aF0.667
aasS'Recall'
p25
(lp26
(lp27
g6
aF1.0
aF1.0
aF1.0
aF1.0
aF1.0
aF1.0
aF1.0
aF0.974
aF1.0
aF1.0
aF1.0
aF1.0
aF1.0
aF0.947
aF0.973
aa(lp28
g8
aF1.0
aF1.0
aF0.974
aF0.974
aF0.973
aF1.0
aF0.974
aF0.974
aF0.947
aF1.0
aF0.947
aF1.0
aF1.0
aF1.0
aF1.0
aa(lp29
g10
aF0.684
aF0.526
aF0.342
aF0.421
aF0.405
aF0.684
aF0.5
aF0.421
aF0.526
aF0.486
aF0.368
aF0.553
aF0.579
aF0.684
aF0.405
aa(lp30
g12
aF0.974
aF1.0
aF1.0
aF0.921
aF1.0
aF1.0
aF1.0
aF0.974
aF1.0
aF1.0
aF1.0
aF1.0
aF1.0
aF1.0
aF1.0
aa(lp31
g14
aF0.974
aF0.974
aF0.974
aF1.0
aF1.0
aF0.921
aF0.974
aF1.0
aF1.0
aF1.0
aF0.921
aF0.974
aF0.974
aF1.0
aF1.0
aa(lp32
g16
aF0.974
aF1.0
aF0.974
aF0.947
aF0.919
aF0.868
aF0.921
aF0.921
aF0.921
aF0.946
aF0.895
aF0.974
aF0.921
aF1.0
aF0.919
aasS'Precision'
p33
(lp34
(lp35
g6
aF0.905
aF0.927
aF0.927
aF0.927
aF0.925
aF0.905
aF0.927
aF0.925
aF0.927
aF0.925
aF0.905
aF0.927
aF0.927
aF0.923
aF0.923
aa(lp36
g8
aF0.905
aF0.927
aF0.925
aF0.925
aF0.923
aF0.905
aF0.925
aF0.925
aF0.947
aF0.925
aF0.9
aF0.927
aF0.927
aF0.927
aF0.925
aa(lp37
g10
aF0.929
aF0.952
aF1.0
aF1.0
aF1.0
aF0.929
aF0.95
aF0.941
aF1.0
aF1.0
aF1.0
aF0.955
aF1.0
aF0.929
aF1.0
aa(lp38
g12
aF0.902
aF0.974
aF0.95
aF0.921
aF0.925
aF0.905
aF0.95
aF0.974
aF0.95
aF0.949
aF0.927
aF0.927
aF0.95
aF0.95
aF0.925
aa(lp39
g14
aF0.902
aF0.925
aF0.925
aF0.95
aF0.925
aF0.921
aF0.925
aF0.927
aF0.927
aF0.925
aF0.921
aF0.925
aF0.925
aF0.927
aF0.925
aa(lp40
g16
aF0.925
aF0.927
aF0.949
aF0.973
aF0.971
aF0.971
aF0.946
aF0.972
aF0.972
aF0.921
aF0.971
aF0.925
aF0.921
aF0.974
aF0.944
aasS'F_score'
p41
(lp42
(lp43
g6
aF0.95
aF0.962
aF0.962
aF0.962
aF0.961
aF0.95
aF0.962
aF0.949
aF0.962
aF0.961
aF0.95
aF0.962
aF0.962
aF0.935
aF0.947
aa(lp44
g8
aF0.95
aF0.962
aF0.949
aF0.949
aF0.947
aF0.95
aF0.949
aF0.949
aF0.947
aF0.961
aF0.923
aF0.962
aF0.962
aF0.962
aF0.961
aa(lp45
g10
aF0.788
aF0.678
aF0.51
aF0.593
aF0.577
aF0.788
aF0.655
aF0.582
aF0.69
aF0.655
aF0.538
aF0.7
aF0.733
aF0.788
aF0.577
aa(lp46
g12
aF0.937
aF0.987
aF0.974
aF0.921
aF0.961
aF0.95
aF0.974
aF0.974
aF0.974
aF0.974
aF0.962
aF0.962
aF0.974
aF0.974
aF0.961
aa(lp47
g14
aF0.937
aF0.949
aF0.949
aF0.974
aF0.961
aF0.921
aF0.949
aF0.962
aF0.962
aF0.961
aF0.921
aF0.949
aF0.949
aF0.962
aF0.961
aa(lp48
g16
aF0.949
aF0.962
aF0.961
aF0.96
aF0.944
aF0.917
aF0.933
aF0.946
aF0.946
aF0.933
aF0.932
aF0.949
aF0.921
aF0.987
aF0.932
aasS'Accuracy'
p49
(lp50
(lp51
g6
aF0.905
aF0.927
aF0.927
aF0.927
aF0.925
aF0.905
aF0.927
aF0.902
aF0.927
aF0.925
aF0.905
aF0.927
aF0.927
aF0.878
aF0.9
aa(lp52
g8
aF0.905
aF0.927
aF0.902
aF0.902
aF0.9
aF0.905
aF0.902
aF0.902
aF0.902
aF0.925
aF0.857
aF0.927
aF0.927
aF0.927
aF0.925
aa(lp53
g10
aF0.667
aF0.537
aF0.39
aF0.463
aF0.45
aF0.667
aF0.512
aF0.439
aF0.561
aF0.525
aF0.429
aF0.561
aF0.61
aF0.659
aF0.45
aa(lp54
g12
aF0.881
aF0.976
aF0.951
aF0.854
aF0.925
aF0.905
aF0.951
aF0.951
aF0.951
aF0.95
aF0.929
aF0.927
aF0.951
aF0.951
aF0.925
aa(lp55
g14
aF0.881
aF0.902
aF0.902
aF0.951
aF0.925
aF0.857
aF0.902
aF0.927
aF0.927
aF0.925
aF0.857
aF0.902
aF0.902
aF0.927
aF0.925
aa(lp56
g16
aF0.905
aF0.927
aF0.927
aF0.927
aF0.9
aF0.857
aF0.878
aF0.902
aF0.902
aF0.875
aF0.881
aF0.902
aF0.854
aF0.976
aF0.875
aass.