(dp0
S'poi'
p1
(dp2
S'AUC'
p3
(lp4
(lp5
S'KNN'
p6
aF0.242
aF0.438
aF0.25
aF0.406
aF0.281
aF0.182
aF0.188
aF0.313
aF0.375
aF0.344
aF0.273
aF0.531
aF0.188
aF0.219
aF0.219
aa(lp7
S'SVM'
p8
aF0.273
aF0.25
aF0.375
aF0.188
aF0.219
aF0.424
aF0.25
aF0.281
aF0.313
aF0.281
aF0.242
aF0.313
aF0.281
aF0.219
aF0.281
aa(lp9
S'NB'
p10
aF0.152
aF0.156
aF0.0
aF0.094
aF0.125
aF0.212
aF0.188
aF0.063
aF0.063
aF0.031
aF0.03
aF0.188
aF0.094
aF0.063
aF0.188
aa(lp11
S'RF'
p12
aF0.152
aF0.156
aF0.313
aF0.219
aF0.344
aF0.333
aF0.188
aF0.156
aF0.281
aF0.219
aF0.242
aF0.156
aF0.188
aF0.188
aF0.25
aa(lp13
S'LR'
p14
aF0.242
aF0.219
aF0.344
aF0.281
aF0.406
aF0.424
aF0.313
aF0.219
aF0.344
aF0.344
aF0.364
aF0.25
aF0.438
aF0.188
aF0.375
aa(lp15
S'DT'
p16
aF0.394
aF0.281
aF0.25
aF0.406
aF0.375
aF0.182
aF0.406
aF0.438
aF0.313
aF0.531
aF0.394
aF0.281
aF0.313
aF0.219
aF0.438
aasS'False_alarm'
p17
(lp18
(lp19
g6
aF0.242
aF0.438
aF0.25
aF0.406
aF0.281
aF0.182
aF0.188
aF0.313
aF0.375
aF0.344
aF0.273
aF0.531
aF0.188
aF0.219
aF0.219
aa(lp20
g8
aF0.273
aF0.25
aF0.375
aF0.188
aF0.219
aF0.424
aF0.25
aF0.281
aF0.313
aF0.281
aF0.242
aF0.313
aF0.281
aF0.219
aF0.281
aa(lp21
g10
aF0.152
aF0.156
aF0.0
aF0.094
aF0.125
aF0.212
aF0.188
aF0.063
aF0.063
aF0.031
aF0.03
aF0.188
aF0.094
aF0.063
aF0.188
aa(lp22
g12
aF0.152
aF0.156
aF0.313
aF0.219
aF0.344
aF0.333
aF0.188
aF0.156
aF0.281
aF0.219
aF0.242
aF0.156
aF0.188
aF0.188
aF0.25
aa(lp23
g14
aF0.242
aF0.219
aF0.344
aF0.281
aF0.406
aF0.424
aF0.313
aF0.219
aF0.344
aF0.344
aF0.364
aF0.25
aF0.438
aF0.188
aF0.375
aa(lp24
g16
aF0.394
aF0.281
aF0.25
aF0.406
aF0.375
aF0.182
aF0.406
aF0.438
aF0.313
aF0.531
aF0.394
aF0.281
aF0.313
aF0.219
aF0.438
aasS'Recall'
p25
(lp26
(lp27
g6
aF0.772
aF0.75
aF0.857
aF0.821
aF0.857
aF0.86
aF0.804
aF0.857
aF0.821
aF0.75
aF0.842
aF0.893
aF0.768
aF0.661
aF0.893
aa(lp28
g8
aF0.754
aF0.714
aF0.875
aF0.714
aF0.839
aF0.789
aF0.696
aF0.786
aF0.857
aF0.768
aF0.702
aF0.732
aF0.821
aF0.768
aF0.75
aa(lp29
g10
aF0.298
aF0.393
aF0.375
aF0.339
aF0.214
aF0.368
aF0.232
aF0.339
aF0.375
aF0.339
aF0.333
aF0.321
aF0.286
aF0.411
aF0.393
aa(lp30
g12
aF0.719
aF0.875
aF0.786
aF0.804
aF0.839
aF0.825
aF0.786
aF0.839
aF0.911
aF0.875
aF0.772
aF0.732
aF0.875
aF0.911
aF0.911
aa(lp31
g14
aF0.772
aF0.839
aF0.839
aF0.786
aF0.839
aF0.825
aF0.804
aF0.768
aF0.768
aF0.821
aF0.965
aF0.696
aF0.839
aF0.75
aF0.839
aa(lp32
g16
aF0.842
aF0.839
aF0.786
aF0.821
aF0.821
aF0.842
aF0.893
aF0.875
aF0.768
aF0.839
aF0.719
aF0.839
aF0.839
aF0.839
aF0.768
aasS'Precision'
p33
(lp34
(lp35
g6
aF0.846
aF0.75
aF0.857
aF0.78
aF0.842
aF0.891
aF0.882
aF0.828
aF0.793
aF0.792
aF0.842
aF0.746
aF0.878
aF0.841
aF0.877
aa(lp36
g8
aF0.827
aF0.833
aF0.803
aF0.87
aF0.87
aF0.763
aF0.83
aF0.83
aF0.828
aF0.827
aF0.833
aF0.804
aF0.836
aF0.86
aF0.824
aa(lp37
g10
aF0.773
aF0.815
aF1.0
aF0.864
aF0.75
aF0.75
aF0.684
aF0.905
aF0.913
aF0.95
aF0.95
aF0.75
aF0.842
aF0.92
aF0.786
aa(lp38
g12
aF0.891
aF0.907
aF0.815
aF0.865
aF0.81
aF0.81
aF0.88
aF0.904
aF0.85
aF0.875
aF0.846
aF0.891
aF0.891
aF0.895
aF0.864
aa(lp39
g14
aF0.846
aF0.87
aF0.81
aF0.83
aF0.783
aF0.77
aF0.818
aF0.86
aF0.796
aF0.807
aF0.821
aF0.83
aF0.77
aF0.875
aF0.797
aa(lp40
g16
aF0.787
aF0.839
aF0.846
aF0.78
aF0.793
aF0.889
aF0.794
aF0.778
aF0.811
aF0.734
aF0.759
aF0.839
aF0.825
aF0.87
aF0.754
aasS'F_score'
p41
(lp42
(lp43
g6
aF0.807
aF0.75
aF0.857
aF0.8
aF0.85
aF0.875
aF0.841
aF0.842
aF0.807
aF0.771
aF0.842
aF0.813
aF0.819
aF0.74
aF0.885
aa(lp44
g8
aF0.789
aF0.769
aF0.838
aF0.784
aF0.855
aF0.776
aF0.757
aF0.807
aF0.842
aF0.796
aF0.762
aF0.766
aF0.829
aF0.811
aF0.785
aa(lp45
g10
aF0.43
aF0.53
aF0.545
aF0.487
aF0.333
aF0.494
aF0.347
aF0.494
aF0.532
aF0.5
aF0.494
aF0.45
aF0.427
aF0.568
aF0.524
aa(lp46
g12
aF0.796
aF0.891
aF0.8
aF0.833
aF0.825
aF0.817
aF0.83
aF0.87
aF0.879
aF0.875
aF0.807
aF0.804
aF0.883
aF0.903
aF0.887
aa(lp47
g14
aF0.807
aF0.855
aF0.825
aF0.807
aF0.81
aF0.797
aF0.811
aF0.811
aF0.782
aF0.814
aF0.887
aF0.757
aF0.803
aF0.808
aF0.817
aa(lp48
g16
aF0.814
aF0.839
aF0.815
aF0.8
aF0.807
aF0.865
aF0.84
aF0.824
aF0.789
aF0.783
aF0.739
aF0.839
aF0.832
aF0.855
aF0.761
aasS'Accuracy'
p49
(lp50
(lp51
g6
aF0.767
aF0.682
aF0.818
aF0.739
aF0.807
aF0.844
aF0.807
aF0.795
aF0.75
aF0.716
aF0.8
aF0.739
aF0.784
aF0.705
aF0.852
aa(lp52
g8
aF0.744
aF0.727
aF0.784
aF0.75
aF0.818
aF0.711
aF0.716
aF0.761
aF0.795
aF0.75
aF0.722
aF0.716
aF0.784
aF0.773
aF0.739
aa(lp53
g10
aF0.5
aF0.557
aF0.602
aF0.545
aF0.455
aF0.522
aF0.443
aF0.557
aF0.58
aF0.568
aF0.567
aF0.5
aF0.511
aF0.602
aF0.545
aa(lp54
g12
aF0.767
aF0.864
aF0.75
aF0.795
aF0.773
aF0.767
aF0.795
aF0.841
aF0.841
aF0.841
aF0.767
aF0.773
aF0.852
aF0.875
aF0.852
aa(lp55
g14
aF0.767
aF0.818
aF0.773
aF0.761
aF0.75
aF0.733
aF0.761
aF0.773
aF0.727
aF0.761
aF0.844
aF0.716
aF0.739
aF0.773
aF0.761
aa(lp56
g16
aF0.756
aF0.795
aF0.773
aF0.739
aF0.75
aF0.833
aF0.784
aF0.761
aF0.739
aF0.705
aF0.678
aF0.795
aF0.784
aF0.818
aF0.693
aass.