(dp0
S'redaktor'
p1
(dp2
S'AUC'
p3
(lp4
(lp5
S'KNN'
p6
aF0.0
aF0.0
aF0.0
aF0.0
aF0.0
aF0.0
aF0.0
aF0.0
aF0.0
aF0.0
aF0.0
aF0.0
aF0.0
aF0.0
aF0.0
aa(lp7
S'SVM'
p8
aF0.033
aF0.0
aF0.133
aF0.033
aF0.0
aF0.0
aF0.0
aF0.0
aF0.033
aF0.034
aF0.0
aF0.0
aF0.033
aF0.0
aF0.0
aa(lp9
S'NB'
p10
aF0.9
aF0.767
aF0.667
aF0.733
aF0.69
aF0.733
aF0.733
aF0.933
aF0.733
aF0.724
aF0.833
aF0.767
aF0.667
aF0.833
aF0.724
aa(lp11
S'RF'
p12
aF0.0
aF0.067
aF0.0
aF0.0
aF0.0
aF0.033
aF0.0
aF0.0
aF0.0
aF0.069
aF0.0
aF0.033
aF0.067
aF0.0
aF0.0
aa(lp13
S'LR'
p14
aF0.033
aF0.0
aF0.067
aF0.0
aF0.0
aF0.033
aF0.033
aF0.033
aF0.0
aF0.0
aF0.0
aF0.1
aF0.033
aF0.1
aF0.0
aa(lp15
S'DT'
p16
aF0.1
aF0.1
aF0.033
aF0.3
aF0.069
aF0.133
aF0.067
aF0.1
aF0.033
aF0.103
aF0.133
aF0.067
aF0.1
aF0.1
aF0.034
aasS'False_alarm'
p17
(lp18
(lp19
g6
aF0.0
aF0.0
aF0.0
aF0.0
aF0.0
aF0.0
aF0.0
aF0.0
aF0.0
aF0.0
aF0.0
aF0.0
aF0.0
aF0.0
aF0.0
aa(lp20
g8
aF0.033
aF0.0
aF0.133
aF0.033
aF0.0
aF0.0
aF0.0
aF0.0
aF0.033
aF0.034
aF0.0
aF0.0
aF0.033
aF0.0
aF0.0
aa(lp21
g10
aF0.9
aF0.767
aF0.667
aF0.733
aF0.69
aF0.733
aF0.733
aF0.933
aF0.733
aF0.724
aF0.833
aF0.767
aF0.667
aF0.833
aF0.724
aa(lp22
g12
aF0.0
aF0.067
aF0.0
aF0.0
aF0.0
aF0.033
aF0.0
aF0.0
aF0.0
aF0.069
aF0.0
aF0.033
aF0.067
aF0.0
aF0.0
aa(lp23
g14
aF0.033
aF0.0
aF0.067
aF0.0
aF0.0
aF0.033
aF0.033
aF0.033
aF0.0
aF0.0
aF0.0
aF0.1
aF0.033
aF0.1
aF0.0
aa(lp24
g16
aF0.1
aF0.1
aF0.033
aF0.3
aF0.069
aF0.133
aF0.067
aF0.1
aF0.033
aF0.103
aF0.133
aF0.067
aF0.1
aF0.1
aF0.034
aasS'Recall'
p25
(lp26
(lp27
g6
aF0.0
aF0.0
aF0.0
aF0.2
aF0.0
aF0.167
aF0.0
aF0.2
aF0.2
aF0.0
aF0.0
aF0.0
aF0.0
aF0.2
aF0.0
aa(lp28
g8
aF0.667
aF0.333
aF0.2
aF0.4
aF0.6
aF0.333
aF0.167
aF0.2
aF0.8
aF0.8
aF0.0
aF0.333
aF0.8
aF0.4
aF0.8
aa(lp29
g10
aF1.0
aF0.833
aF1.0
aF1.0
aF1.0
aF1.0
aF1.0
aF1.0
aF1.0
aF0.8
aF1.0
aF1.0
aF0.8
aF1.0
aF1.0
aa(lp30
g12
aF0.5
aF0.5
aF0.6
aF0.6
aF0.0
aF0.5
aF0.167
aF0.6
aF0.4
aF0.2
aF0.667
aF0.5
aF0.2
aF0.6
aF0.2
aa(lp31
g14
aF0.5
aF0.333
aF0.2
aF0.6
aF0.2
aF0.5
aF0.667
aF0.4
aF0.8
aF0.0
aF0.333
aF0.667
aF0.4
aF0.8
aF0.0
aa(lp32
g16
aF1.0
aF0.5
aF0.4
aF0.8
aF0.2
aF0.667
aF0.333
aF0.4
aF0.2
aF0.4
aF0.167
aF0.5
aF0.6
aF0.6
aF0.6
aasS'Precision'
p33
(lp34
(lp35
g6
aF0.0
aF0.0
aF0.0
aF1.0
aF0.0
aF1.0
aF0.0
aF1.0
aF1.0
aF0.0
aF0.0
aF0.0
aF0.0
aF1.0
aF0.0
aa(lp36
g8
aF0.8
aF1.0
aF0.2
aF0.667
aF1.0
aF1.0
aF1.0
aF1.0
aF0.8
aF0.8
aF0.0
aF1.0
aF0.8
aF1.0
aF1.0
aa(lp37
g10
aF0.182
aF0.179
aF0.2
aF0.185
aF0.2
aF0.214
aF0.214
aF0.152
aF0.185
aF0.16
aF0.194
aF0.207
aF0.167
aF0.167
aF0.192
aa(lp38
g12
aF1.0
aF0.6
aF1.0
aF1.0
aF0.0
aF0.75
aF1.0
aF1.0
aF1.0
aF0.333
aF1.0
aF0.75
aF0.333
aF1.0
aF1.0
aa(lp39
g14
aF0.75
aF1.0
aF0.333
aF1.0
aF1.0
aF0.75
aF0.8
aF0.667
aF1.0
aF0.0
aF1.0
aF0.571
aF0.667
aF0.571
aF0.0
aa(lp40
g16
aF0.667
aF0.5
aF0.667
aF0.308
aF0.333
aF0.5
aF0.5
aF0.4
aF0.5
aF0.4
aF0.2
aF0.6
aF0.5
aF0.5
aF0.75
aasS'F_score'
p41
(lp42
(lp43
g6
aF0.0
aF0.0
aF0.0
aF0.333
aF0.0
aF0.286
aF0.0
aF0.333
aF0.333
aF0.0
aF0.0
aF0.0
aF0.0
aF0.333
aF0.0
aa(lp44
g8
aF0.727
aF0.5
aF0.2
aF0.5
aF0.75
aF0.5
aF0.286
aF0.333
aF0.8
aF0.8
aF0.0
aF0.5
aF0.8
aF0.571
aF0.889
aa(lp45
g10
aF0.308
aF0.294
aF0.333
aF0.313
aF0.333
aF0.353
aF0.353
aF0.263
aF0.313
aF0.267
aF0.324
aF0.343
aF0.276
aF0.286
aF0.323
aa(lp46
g12
aF0.667
aF0.545
aF0.75
aF0.75
aF0.0
aF0.6
aF0.286
aF0.75
aF0.571
aF0.25
aF0.8
aF0.6
aF0.25
aF0.75
aF0.333
aa(lp47
g14
aF0.6
aF0.5
aF0.25
aF0.75
aF0.333
aF0.6
aF0.727
aF0.5
aF0.889
aF0.0
aF0.5
aF0.615
aF0.5
aF0.667
aF0.0
aa(lp48
g16
aF0.8
aF0.5
aF0.5
aF0.444
aF0.25
aF0.571
aF0.4
aF0.4
aF0.286
aF0.4
aF0.182
aF0.545
aF0.545
aF0.545
aF0.667
aasS'Accuracy'
p49
(lp50
(lp51
g6
aF0.0
aF0.0
aF0.0
aF0.886
aF0.0
aF0.861
aF0.0
aF0.886
aF0.886
aF0.0
aF0.0
aF0.0
aF0.0
aF0.886
aF0.0
aa(lp52
g8
aF0.917
aF0.889
aF0.771
aF0.886
aF0.941
aF0.889
aF0.861
aF0.886
aF0.943
aF0.941
aF0.0
aF0.889
aF0.943
aF0.914
aF0.971
aa(lp53
g10
aF0.25
aF0.333
aF0.429
aF0.371
aF0.412
aF0.389
aF0.389
aF0.2
aF0.371
aF0.353
aF0.306
aF0.361
aF0.4
aF0.286
aF0.382
aa(lp54
g12
aF0.917
aF0.861
aF0.943
aF0.943
aF0.0
aF0.889
aF0.861
aF0.943
aF0.914
aF0.824
aF0.944
aF0.889
aF0.829
aF0.943
aF0.882
aa(lp55
g14
aF0.889
aF0.889
aF0.829
aF0.943
aF0.882
aF0.889
aF0.917
aF0.886
aF0.971
aF0.0
aF0.889
aF0.861
aF0.886
aF0.886
aF0.0
aa(lp56
g16
aF0.917
aF0.833
aF0.886
aF0.714
aF0.824
aF0.833
aF0.833
aF0.829
aF0.857
aF0.824
aF0.75
aF0.861
aF0.857
aF0.857
aF0.912
aass.