(dp0
S'synapse'
p1
(dp2
S'Recall'
p3
(lp4
(lp5
S'KNN'
p6
aF0.824
aF0.941
aF0.882
aF0.765
aF0.824
aF0.882
aF0.853
aF0.912
aF0.882
aF0.824
aF0.941
aF0.794
aF0.853
aF0.912
aF0.824
aF0.765
aF0.794
aF0.971
aF0.824
aF1.0
aF0.912
aF0.853
aF0.853
aF0.794
aF0.853
aa(lp7
S'SVM'
p8
aF0.971
aF0.941
aF0.853
aF0.794
aF0.853
aF0.941
aF0.824
aF0.912
aF0.824
aF0.794
aF0.941
aF0.853
aF0.853
aF0.941
aF0.882
aF0.824
aF0.824
aF0.971
aF0.882
aF0.971
aF0.941
aF0.853
aF0.853
aF0.912
aF0.912
aa(lp9
S'NB'
p10
aF0.912
aF0.941
aF0.824
aF0.676
aF0.794
aF0.853
aF0.794
aF0.941
aF0.824
aF0.853
aF0.941
aF0.765
aF0.853
aF0.882
aF0.794
aF0.765
aF0.794
aF0.882
aF0.824
aF0.882
aF0.824
aF0.794
aF0.882
aF0.912
aF0.824
aa(lp11
S'RF'
p12
aF0.853
aF0.941
aF0.882
aF0.853
aF0.824
aF0.941
aF0.853
aF0.912
aF0.882
aF0.882
aF0.941
aF0.853
aF0.824
aF0.912
aF0.794
aF0.794
aF0.794
aF0.912
aF0.882
aF1.0
aF0.912
aF0.824
aF0.794
aF0.912
aF0.882
aa(lp13
S'LR'
p14
aF0.941
aF0.941
aF0.853
aF0.824
aF0.765
aF0.941
aF0.824
aF0.912
aF0.824
aF0.853
aF0.941
aF0.882
aF0.882
aF0.941
aF0.853
aF0.824
aF0.824
aF0.941
aF0.882
aF0.941
aF0.882
aF0.853
aF0.882
aF0.912
aF0.882
aa(lp15
S'DT'
p16
aF0.882
aF0.794
aF0.735
aF0.765
aF0.647
aF0.824
aF0.706
aF0.853
aF0.735
aF0.794
aF0.706
aF0.735
aF0.647
aF0.882
aF0.765
aF0.676
aF0.706
aF0.824
aF0.765
aF0.765
aF0.882
aF0.706
aF0.765
aF0.706
aF0.853
aasS'Precision'
p17
(lp18
(lp19
g6
aF0.7
aF0.744
aF0.769
aF0.722
aF0.757
aF0.769
aF0.674
aF0.738
aF0.789
aF0.848
aF0.744
aF0.75
aF0.806
aF0.721
aF0.737
aF0.765
aF0.73
aF0.733
aF0.757
aF0.756
aF0.721
aF0.707
aF0.806
aF0.771
aF0.707
aa(lp20
g8
aF0.688
aF0.744
aF0.744
aF0.794
aF0.763
aF0.744
aF0.683
aF0.756
aF0.737
aF0.771
aF0.744
aF0.69
aF0.763
aF0.762
aF0.811
aF0.737
aF0.718
aF0.767
aF0.769
aF0.75
aF0.711
aF0.69
aF0.853
aF0.738
aF0.721
aa(lp21
g10
aF0.705
aF0.78
aF0.757
aF0.852
aF0.794
aF0.806
aF0.73
aF0.842
aF0.757
aF0.784
aF0.78
aF0.722
aF0.829
aF0.789
aF0.794
aF0.839
aF0.73
aF0.769
aF0.757
aF0.75
aF0.8
aF0.675
aF0.833
aF0.795
aF0.718
aa(lp22
g12
aF0.725
aF0.842
aF0.732
aF0.829
aF0.778
aF0.889
aF0.763
aF0.756
aF0.682
aF0.789
aF0.762
aF0.744
aF0.824
aF0.756
aF0.692
aF0.75
aF0.75
aF0.775
aF0.769
aF0.723
aF0.795
aF0.737
aF0.844
aF0.816
aF0.732
aa(lp23
g14
aF0.681
aF0.78
aF0.744
aF0.8
aF0.765
aF0.8
aF0.683
aF0.756
aF0.778
aF0.784
aF0.8
aF0.714
aF0.789
aF0.744
aF0.806
aF0.737
aF0.718
aF0.744
aF0.769
aF0.762
aF0.714
aF0.707
aF0.857
aF0.738
aF0.732
aa(lp24
g16
aF0.75
aF0.931
aF0.735
aF0.813
aF0.815
aF0.848
aF0.649
aF0.853
aF0.735
aF0.844
aF0.75
aF0.735
aF0.759
aF0.789
aF0.765
aF0.767
aF0.774
aF0.824
aF0.839
aF0.839
aF0.811
aF0.75
aF0.839
aF0.774
aF0.744
aasS'F_score'
p25
(lp26
(lp27
g6
aF0.757
aF0.831
aF0.822
aF0.743
aF0.789
aF0.822
aF0.753
aF0.816
aF0.833
aF0.836
aF0.831
aF0.771
aF0.829
aF0.805
aF0.778
aF0.765
aF0.761
aF0.835
aF0.789
aF0.861
aF0.805
aF0.773
aF0.829
aF0.783
aF0.773
aa(lp28
g8
aF0.805
aF0.831
aF0.795
aF0.794
aF0.806
aF0.831
aF0.747
aF0.827
aF0.778
aF0.783
aF0.831
aF0.763
aF0.806
aF0.842
aF0.845
aF0.778
aF0.767
aF0.857
aF0.822
aF0.846
aF0.81
aF0.763
aF0.853
aF0.816
aF0.805
aa(lp29
g10
aF0.795
aF0.853
aF0.789
aF0.754
aF0.794
aF0.829
aF0.761
aF0.889
aF0.789
aF0.817
aF0.853
aF0.743
aF0.841
aF0.833
aF0.794
aF0.8
aF0.761
aF0.822
aF0.789
aF0.811
aF0.812
aF0.73
aF0.857
aF0.849
aF0.767
aa(lp30
g12
aF0.784
aF0.889
aF0.8
aF0.841
aF0.8
aF0.914
aF0.806
aF0.827
aF0.769
aF0.833
aF0.842
aF0.795
aF0.824
aF0.827
aF0.74
aF0.771
aF0.771
aF0.838
aF0.822
aF0.84
aF0.849
aF0.778
aF0.818
aF0.861
aF0.8
aa(lp31
g14
aF0.79
aF0.853
aF0.795
aF0.812
aF0.765
aF0.865
aF0.747
aF0.827
aF0.8
aF0.817
aF0.865
aF0.789
aF0.833
aF0.831
aF0.829
aF0.778
aF0.767
aF0.831
aF0.822
aF0.842
aF0.789
aF0.773
aF0.87
aF0.816
aF0.8
aa(lp32
g16
aF0.811
aF0.857
aF0.735
aF0.788
aF0.721
aF0.836
aF0.676
aF0.853
aF0.735
aF0.818
aF0.727
aF0.735
aF0.698
aF0.833
aF0.765
aF0.719
aF0.738
aF0.824
aF0.8
aF0.8
aF0.845
aF0.727
aF0.8
aF0.738
aF0.795
aasS'Accuracy'
p33
(lp34
(lp35
g6
aF0.654
aF0.745
aF0.745
aF0.647
aF0.706
aF0.75
aF0.627
aF0.725
aF0.765
aF0.784
aF0.75
aF0.686
aF0.765
aF0.706
aF0.686
aF0.692
aF0.667
aF0.745
aF0.706
aF0.784
aF0.712
aF0.667
aF0.765
aF0.706
aF0.667
aa(lp36
g8
aF0.692
aF0.745
aF0.706
aF0.725
aF0.725
aF0.75
aF0.627
aF0.745
aF0.686
aF0.706
aF0.75
aF0.647
aF0.725
aF0.765
aF0.784
aF0.692
aF0.667
aF0.784
aF0.745
aF0.765
aF0.712
aF0.647
aF0.804
aF0.725
aF0.706
aa(lp37
g10
aF0.692
aF0.784
aF0.706
aF0.706
aF0.725
aF0.769
aF0.667
aF0.843
aF0.706
aF0.745
aF0.788
aF0.647
aF0.784
aF0.765
aF0.725
aF0.75
aF0.667
aF0.745
aF0.706
aF0.725
aF0.75
aF0.608
aF0.804
aF0.784
aF0.667
aa(lp38
g12
aF0.692
aF0.843
aF0.706
aF0.784
aF0.725
aF0.885
aF0.725
aF0.745
aF0.647
aF0.765
aF0.769
aF0.706
aF0.765
aF0.745
aF0.627
aF0.692
aF0.686
aF0.765
aF0.745
aF0.745
aF0.788
aF0.686
aF0.765
aF0.804
aF0.706
aa(lp39
g14
aF0.673
aF0.784
aF0.706
aF0.745
aF0.686
aF0.808
aF0.627
aF0.745
aF0.725
aF0.745
aF0.808
aF0.686
aF0.765
aF0.745
aF0.765
aF0.692
aF0.667
aF0.745
aF0.745
aF0.765
aF0.692
aF0.667
aF0.824
aF0.725
aF0.706
aa(lp40
g16
aF0.731
aF0.824
aF0.647
aF0.725
aF0.667
aF0.788
aF0.549
aF0.804
aF0.647
aF0.765
aF0.654
aF0.647
aF0.627
aF0.765
aF0.686
aF0.654
aF0.667
aF0.765
aF0.745
aF0.745
aF0.788
aF0.647
aF0.745
aF0.667
aF0.706
aass.