(dp0
S'velocity'
p1
(dp2
S'AUC'
p3
(lp4
(lp5
S'KNN'
p6
aF0.032
aF0.2
aF0.033
aF0.233
aF0.067
aF0.097
aF0.067
aF0.1
aF0.167
aF0.2
aF0.097
aF0.2
aF0.0
aF0.1
aF0.133
aa(lp7
S'SVM'
p8
aF0.161
aF0.267
aF0.067
aF0.1
aF0.1
aF0.226
aF0.133
aF0.067
aF0.1
aF0.067
aF0.161
aF0.067
aF0.1
aF0.1
aF0.2
aa(lp9
S'NB'
p10
aF0.097
aF0.133
aF0.1
aF0.133
aF0.1
aF0.097
aF0.133
aF0.067
aF0.1
aF0.1
aF0.065
aF0.1
aF0.1
aF0.1
aF0.167
aa(lp11
S'RF'
p12
aF0.226
aF0.133
aF0.167
aF0.033
aF0.0
aF0.0
aF0.267
aF0.067
aF0.133
aF0.133
aF0.161
aF0.1
aF0.167
aF0.133
aF0.033
aa(lp13
S'LR'
p14
aF0.323
aF0.033
aF0.167
aF0.033
aF0.067
aF0.161
aF0.133
aF0.1
aF0.067
aF0.033
aF0.065
aF0.233
aF0.067
aF0.167
aF0.067
aa(lp15
S'DT'
p16
aF0.226
aF0.267
aF0.233
aF0.2
aF0.167
aF0.323
aF0.167
aF0.3
aF0.133
aF0.2
aF0.161
aF0.267
aF0.133
aF0.267
aF0.333
aasS'False_alarm'
p17
(lp18
(lp19
g6
aF0.032
aF0.2
aF0.033
aF0.233
aF0.067
aF0.097
aF0.067
aF0.1
aF0.167
aF0.2
aF0.097
aF0.2
aF0.0
aF0.1
aF0.133
aa(lp20
g8
aF0.161
aF0.267
aF0.067
aF0.1
aF0.1
aF0.226
aF0.133
aF0.067
aF0.1
aF0.067
aF0.161
aF0.067
aF0.1
aF0.1
aF0.2
aa(lp21
g10
aF0.097
aF0.133
aF0.1
aF0.133
aF0.1
aF0.097
aF0.133
aF0.067
aF0.1
aF0.1
aF0.065
aF0.1
aF0.1
aF0.1
aF0.167
aa(lp22
g12
aF0.226
aF0.133
aF0.167
aF0.033
aF0.0
aF0.0
aF0.267
aF0.067
aF0.133
aF0.133
aF0.161
aF0.1
aF0.167
aF0.133
aF0.033
aa(lp23
g14
aF0.323
aF0.033
aF0.167
aF0.033
aF0.067
aF0.161
aF0.133
aF0.1
aF0.067
aF0.033
aF0.065
aF0.233
aF0.067
aF0.167
aF0.067
aa(lp24
g16
aF0.226
aF0.267
aF0.233
aF0.2
aF0.167
aF0.323
aF0.167
aF0.3
aF0.133
aF0.2
aF0.161
aF0.267
aF0.133
aF0.267
aF0.333
aasS'Recall'
p25
(lp26
(lp27
g6
aF0.25
aF0.438
aF0.188
aF0.2
aF0.4
aF0.25
aF0.25
aF0.188
aF0.333
aF0.4
aF0.188
aF0.188
aF0.313
aF0.4
aF0.4
aa(lp28
g8
aF0.375
aF0.625
aF0.438
aF0.467
aF0.533
aF0.563
aF0.25
aF0.375
aF0.333
aF0.533
aF0.375
aF0.625
aF0.5
aF0.467
aF0.533
aa(lp29
g10
aF0.25
aF0.375
aF0.125
aF0.333
aF0.4
aF0.25
aF0.125
aF0.5
aF0.333
aF0.267
aF0.188
aF0.313
aF0.25
aF0.267
aF0.4
aa(lp30
g12
aF0.688
aF0.5
aF0.5
aF0.067
aF0.733
aF0.438
aF0.563
aF0.563
aF0.467
aF0.4
aF0.5
aF0.313
aF0.438
aF0.467
aF0.4
aa(lp31
g14
aF0.5
aF0.25
aF0.75
aF0.4
aF0.2
aF0.375
aF0.563
aF0.313
aF0.533
aF0.2
aF0.563
aF0.625
aF0.25
aF0.533
aF0.267
aa(lp32
g16
aF0.438
aF0.438
aF0.375
aF0.267
aF0.533
aF0.75
aF0.5
aF0.75
aF0.533
aF0.8
aF0.5
aF0.625
aF0.5
aF0.733
aF0.6
aasS'Precision'
p33
(lp34
(lp35
g6
aF0.8
aF0.538
aF0.75
aF0.3
aF0.75
aF0.571
aF0.667
aF0.5
aF0.5
aF0.5
aF0.5
aF0.333
aF1.0
aF0.667
aF0.6
aa(lp36
g8
aF0.545
aF0.556
aF0.778
aF0.7
aF0.727
aF0.563
aF0.5
aF0.75
aF0.625
aF0.8
aF0.545
aF0.833
aF0.727
aF0.7
aF0.571
aa(lp37
g10
aF0.571
aF0.6
aF0.4
aF0.556
aF0.667
aF0.571
aF0.333
aF0.8
aF0.625
aF0.571
aF0.6
aF0.625
aF0.571
aF0.571
aF0.545
aa(lp38
g12
aF0.611
aF0.667
aF0.615
aF0.5
aF1.0
aF1.0
aF0.529
aF0.818
aF0.636
aF0.6
aF0.615
aF0.625
aF0.583
aF0.636
aF0.857
aa(lp39
g14
aF0.444
aF0.8
aF0.706
aF0.857
aF0.6
aF0.545
aF0.692
aF0.625
aF0.8
aF0.75
aF0.818
aF0.588
aF0.667
aF0.615
aF0.667
aa(lp40
g16
aF0.5
aF0.467
aF0.462
aF0.4
aF0.615
aF0.545
aF0.615
aF0.571
aF0.667
aF0.667
aF0.615
aF0.556
aF0.667
aF0.579
aF0.474
aasS'F_score'
p41
(lp42
(lp43
g6
aF0.381
aF0.483
aF0.3
aF0.24
aF0.522
aF0.348
aF0.364
aF0.273
aF0.4
aF0.444
aF0.273
aF0.24
aF0.476
aF0.5
aF0.48
aa(lp44
g8
aF0.444
aF0.588
aF0.56
aF0.56
aF0.615
aF0.563
aF0.333
aF0.5
aF0.435
aF0.64
aF0.444
aF0.714
aF0.593
aF0.56
aF0.552
aa(lp45
g10
aF0.348
aF0.462
aF0.19
aF0.417
aF0.5
aF0.348
aF0.182
aF0.615
aF0.435
aF0.364
aF0.286
aF0.417
aF0.348
aF0.364
aF0.462
aa(lp46
g12
aF0.647
aF0.571
aF0.552
aF0.118
aF0.846
aF0.609
aF0.545
aF0.667
aF0.538
aF0.48
aF0.552
aF0.417
aF0.5
aF0.538
aF0.545
aa(lp47
g14
aF0.471
aF0.381
aF0.727
aF0.545
aF0.3
aF0.444
aF0.621
aF0.417
aF0.64
aF0.316
aF0.667
aF0.606
aF0.364
aF0.571
aF0.381
aa(lp48
g16
aF0.467
aF0.452
aF0.414
aF0.32
aF0.571
aF0.632
aF0.552
aF0.649
aF0.593
aF0.727
aF0.552
aF0.588
aF0.571
aF0.647
aF0.529
aasS'Accuracy'
p49
(lp50
(lp51
g6
aF0.723
aF0.674
aF0.696
aF0.578
aF0.756
aF0.681
aF0.696
aF0.652
aF0.667
aF0.667
aF0.66
aF0.587
aF0.761
aF0.733
aF0.711
aa(lp52
g8
aF0.681
aF0.696
aF0.761
aF0.756
aF0.778
aF0.702
aF0.652
aF0.739
aF0.711
aF0.8
aF0.681
aF0.826
aF0.761
aF0.756
aF0.711
aa(lp53
g10
aF0.681
aF0.696
aF0.63
aF0.689
aF0.733
aF0.681
aF0.609
aF0.783
aF0.711
aF0.689
aF0.681
aF0.696
aF0.674
aF0.689
aF0.689
aa(lp54
g12
aF0.745
aF0.739
aF0.717
aF0.667
aF0.911
aF0.809
aF0.674
aF0.804
aF0.733
aF0.711
aF0.723
aF0.696
aF0.696
aF0.733
aF0.778
aa(lp55
g14
aF0.617
aF0.717
aF0.804
aF0.778
aF0.689
aF0.681
aF0.761
aF0.696
aF0.8
aF0.711
aF0.809
aF0.717
aF0.696
aF0.733
aF0.711
aa(lp56
g16
aF0.66
aF0.63
aF0.63
aF0.622
aF0.733
aF0.702
aF0.717
aF0.717
aF0.756
aF0.8
aF0.723
aF0.696
aF0.739
aF0.733
aF0.644
aass.