(dp0
S'xalan'
p1
(dp2
S'Recall'
p3
(lp4
(lp5
S'KNN'
p6
aF0.667
aF0.5
aF0.0
aF0.0
aF1.0
aF0.0
aF0.0
aF0.5
aF0.5
aF0.5
aF0.0
aF0.0
aF0.0
aF0.5
aF1.0
aF0.333
aF1.0
aF0.0
aF0.5
aF0.5
aF0.333
aF0.0
aF0.5
aF1.0
aF0.5
aa(lp7
S'SVM'
p8
aF0.667
aF1.0
aF0.0
aF0.0
aF1.0
aF1.0
aF0.0
aF0.5
aF0.5
aF0.5
aF1.0
aF0.0
aF0.0
aF0.5
aF1.0
aF0.667
aF1.0
aF0.0
aF0.5
aF0.5
aF0.333
aF0.0
aF1.0
aF1.0
aF0.5
aa(lp9
S'NB'
p10
aF1.0
aF1.0
aF0.0
aF0.0
aF1.0
aF1.0
aF0.0
aF1.0
aF0.5
aF1.0
aF1.0
aF0.5
aF0.0
aF1.0
aF1.0
aF0.667
aF1.0
aF0.0
aF1.0
aF0.5
aF0.667
aF0.0
aF1.0
aF1.0
aF0.5
aa(lp11
S'RF'
p12
aF0.667
aF1.0
aF0.0
aF0.0
aF1.0
aF1.0
aF0.0
aF0.5
aF0.5
aF0.5
aF1.0
aF0.0
aF0.0
aF0.5
aF1.0
aF0.667
aF1.0
aF0.0
aF0.5
aF0.5
aF0.333
aF0.0
aF1.0
aF1.0
aF0.5
aa(lp13
S'LR'
p14
aF0.667
aF0.0
aF0.0
aF0.0
aF0.0
aF0.0
aF0.0
aF0.0
aF0.5
aF0.5
aF0.0
aF0.0
aF0.0
aF0.0
aF0.0
aF0.333
aF1.0
aF0.0
aF0.0
aF0.0
aF0.0
aF0.0
aF0.0
aF0.0
aF0.5
aa(lp15
S'DT'
p16
aF0.667
aF1.0
aF0.0
aF0.5
aF1.0
aF1.0
aF0.0
aF0.5
aF0.5
aF0.5
aF1.0
aF0.5
aF0.0
aF0.5
aF1.0
aF0.667
aF1.0
aF0.0
aF0.5
aF1.0
aF0.333
aF0.0
aF1.0
aF1.0
aF0.5
aasS'Precision'
p17
(lp18
(lp19
g6
aF1.0
aF1.0
aF0.0
aF0.0
aF1.0
aF0.0
aF0.0
aF1.0
aF1.0
aF0.333
aF0.0
aF0.0
aF0.0
aF1.0
aF1.0
aF1.0
aF1.0
aF0.0
aF0.5
aF1.0
aF0.5
aF0.0
aF1.0
aF0.5
aF1.0
aa(lp20
g8
aF0.5
aF0.5
aF0.0
aF0.0
aF1.0
aF0.6
aF0.0
aF1.0
aF0.25
aF0.333
aF0.75
aF0.0
aF0.0
aF0.5
aF1.0
aF0.667
aF0.286
aF0.0
aF1.0
aF0.5
aF0.5
aF0.0
aF0.667
aF1.0
aF0.5
aa(lp21
g10
aF0.103
aF0.08
aF0.0
aF0.0
aF0.061
aF0.097
aF0.0
aF0.083
aF0.053
aF0.059
aF0.094
aF0.059
aF0.0
aF0.067
aF0.095
aF0.083
aF0.067
aF0.0
aF0.083
aF0.043
aF0.074
aF0.0
aF0.067
aF0.057
aF0.045
aa(lp22
g12
aF1.0
aF1.0
aF0.0
aF0.0
aF1.0
aF1.0
aF0.0
aF1.0
aF1.0
aF0.333
aF1.0
aF0.0
aF0.0
aF1.0
aF1.0
aF1.0
aF1.0
aF0.0
aF1.0
aF1.0
aF1.0
aF0.0
aF1.0
aF1.0
aF1.0
aa(lp23
g14
aF0.5
aF0.0
aF0.0
aF0.0
aF0.0
aF0.0
aF0.0
aF0.0
aF0.333
aF0.333
aF0.0
aF0.0
aF0.0
aF0.0
aF0.0
aF0.5
aF0.4
aF0.0
aF0.0
aF0.0
aF0.0
aF0.0
aF0.0
aF0.0
aF0.5
aa(lp24
g16
aF1.0
aF0.667
aF0.0
aF1.0
aF0.667
aF0.75
aF0.0
aF1.0
aF0.5
aF0.25
aF1.0
aF0.333
aF0.0
aF1.0
aF0.5
aF0.667
aF1.0
aF0.0
aF0.5
aF0.667
aF0.333
aF0.0
aF0.4
aF1.0
aF0.5
aasS'F_score'
p25
(lp26
(lp27
g6
aF0.8
aF0.667
aF0.0
aF0.0
aF1.0
aF0.0
aF0.0
aF0.667
aF0.667
aF0.4
aF0.0
aF0.0
aF0.0
aF0.667
aF1.0
aF0.5
aF1.0
aF0.0
aF0.5
aF0.667
aF0.4
aF0.0
aF0.667
aF0.667
aF0.667
aa(lp28
g8
aF0.571
aF0.667
aF0.0
aF0.0
aF1.0
aF0.75
aF0.0
aF0.667
aF0.333
aF0.4
aF0.857
aF0.0
aF0.0
aF0.5
aF1.0
aF0.667
aF0.444
aF0.0
aF0.667
aF0.5
aF0.4
aF0.0
aF0.8
aF1.0
aF0.5
aa(lp29
g10
aF0.188
aF0.148
aF0.0
aF0.0
aF0.114
aF0.176
aF0.0
aF0.154
aF0.095
aF0.111
aF0.171
aF0.105
aF0.0
aF0.125
aF0.174
aF0.148
aF0.125
aF0.0
aF0.154
aF0.08
aF0.133
aF0.0
aF0.125
aF0.108
aF0.083
aa(lp30
g12
aF0.8
aF1.0
aF0.0
aF0.0
aF1.0
aF1.0
aF0.0
aF0.667
aF0.667
aF0.4
aF1.0
aF0.0
aF0.0
aF0.667
aF1.0
aF0.8
aF1.0
aF0.0
aF0.667
aF0.667
aF0.5
aF0.0
aF1.0
aF1.0
aF0.667
aa(lp31
g14
aF0.571
aF0.0
aF0.0
aF0.0
aF0.0
aF0.0
aF0.0
aF0.0
aF0.4
aF0.4
aF0.0
aF0.0
aF0.0
aF0.0
aF0.0
aF0.4
aF0.571
aF0.0
aF0.0
aF0.0
aF0.0
aF0.0
aF0.0
aF0.0
aF0.5
aa(lp32
g16
aF0.8
aF0.8
aF0.0
aF0.667
aF0.8
aF0.857
aF0.0
aF0.667
aF0.5
aF0.333
aF1.0
aF0.4
aF0.0
aF0.667
aF0.667
aF0.667
aF1.0
aF0.0
aF0.5
aF0.8
aF0.333
aF0.0
aF0.571
aF1.0
aF0.5
aasS'Accuracy'
p33
(lp34
(lp35
g6
aF0.995
aF0.995
aF0.0
aF0.0
aF1.0
aF0.0
aF0.0
aF0.995
aF0.994
aF0.983
aF0.0
aF0.0
aF0.0
aF0.994
aF1.0
aF0.989
aF1.0
aF0.0
aF0.989
aF0.994
aF0.984
aF0.0
aF0.995
aF0.989
aF0.994
aa(lp36
g8
aF0.984
aF0.989
aF0.0
aF0.0
aF1.0
aF0.989
aF0.0
aF0.995
aF0.978
aF0.983
aF0.995
aF0.0
aF0.0
aF0.989
aF1.0
aF0.989
aF0.973
aF0.0
aF0.994
aF0.989
aF0.984
aF0.0
aF0.995
aF1.0
aF0.989
aa(lp37
g10
aF0.858
aF0.874
aF0.0
aF0.0
aF0.829
aF0.847
aF0.0
aF0.879
aF0.895
aF0.823
aF0.842
aF0.907
aF0.0
aF0.845
aF0.895
aF0.874
aF0.846
aF0.0
aF0.878
aF0.873
aF0.858
aF0.0
aF0.846
aF0.818
aF0.878
aa(lp38
g12
aF0.995
aF1.0
aF0.0
aF0.0
aF1.0
aF1.0
aF0.0
aF0.995
aF0.994
aF0.983
aF1.0
aF0.0
aF0.0
aF0.994
aF1.0
aF0.995
aF1.0
aF0.0
aF0.994
aF0.994
aF0.989
aF0.0
aF1.0
aF1.0
aF0.994
aa(lp39
g14
aF0.984
aF0.0
aF0.0
aF0.0
aF0.0
aF0.0
aF0.0
aF0.0
aF0.983
aF0.983
aF0.0
aF0.0
aF0.0
aF0.0
aF0.0
aF0.984
aF0.984
aF0.0
aF0.0
aF0.0
aF0.0
aF0.0
aF0.0
aF0.0
aF0.989
aa(lp40
g16
aF0.995
aF0.995
aF0.0
aF0.994
aF0.994
aF0.995
aF0.0
aF0.995
aF0.989
aF0.978
aF1.0
aF0.984
aF0.0
aF0.994
aF0.989
aF0.989
aF1.0
aF0.0
aF0.989
aF0.994
aF0.978
aF0.0
aF0.984
aF1.0
aF0.989
aass.