(dp0
S'xerces'
p1
(dp2
S'Recall'
p3
(lp4
(lp5
S'KNN'
p6
aF0.645
aF0.633
aF0.6
aF0.5
aF0.8
aF0.581
aF0.733
aF0.667
aF0.633
aF0.533
aF0.548
aF0.667
aF0.7
aF0.667
aF0.7
aF0.742
aF0.633
aF0.533
aF0.6
aF0.633
aF0.677
aF0.567
aF0.7
aF0.433
aF0.7
aa(lp7
S'SVM'
p8
aF0.71
aF0.8
aF0.9
aF0.8
aF0.933
aF0.935
aF0.9
aF0.733
aF0.833
aF0.667
aF0.774
aF0.8
aF0.9
aF0.767
aF0.8
aF0.968
aF0.733
aF0.767
aF0.833
aF0.733
aF0.742
aF0.933
aF0.8
aF0.8
aF0.833
aa(lp9
S'NB'
p10
aF0.806
aF0.967
aF0.867
aF0.867
aF0.933
aF0.903
aF0.9
aF0.867
aF0.967
aF0.9
aF0.839
aF0.9
aF0.933
aF0.9
aF0.867
aF0.935
aF0.833
aF0.867
aF0.867
aF0.967
aF0.871
aF0.933
aF0.867
aF0.833
aF0.867
aa(lp11
S'RF'
p12
aF0.742
aF0.767
aF0.833
aF0.767
aF0.933
aF0.903
aF0.9
aF0.767
aF0.867
aF0.633
aF0.742
aF0.8
aF0.9
aF0.8
aF0.833
aF0.968
aF0.667
aF0.9
aF0.8
aF0.767
aF0.806
aF0.9
aF0.833
aF0.767
aF0.833
aa(lp13
S'LR'
p14
aF0.677
aF0.8
aF0.767
aF0.767
aF0.9
aF0.903
aF0.8
aF0.733
aF0.833
aF0.667
aF0.742
aF0.8
aF0.8
aF0.8
aF0.7
aF0.903
aF0.733
aF0.733
aF0.8
aF0.733
aF0.742
aF0.933
aF0.8
aF0.8
aF0.867
aa(lp15
S'DT'
p16
aF0.774
aF0.833
aF0.867
aF0.733
aF0.967
aF0.871
aF0.867
aF0.8
aF0.9
aF0.7
aF0.71
aF0.8
aF0.967
aF0.767
aF0.833
aF0.903
aF0.733
aF0.8
aF0.767
aF0.8
aF0.742
aF0.867
aF0.833
aF0.767
aF0.767
aasS'Precision'
p17
(lp18
(lp19
g6
aF0.833
aF0.731
aF0.72
aF0.625
aF0.774
aF0.643
aF0.71
aF0.769
aF0.76
aF0.762
aF0.63
aF0.741
aF0.808
aF0.741
aF0.808
aF0.742
aF0.792
aF0.762
aF0.667
aF0.633
aF0.875
aF0.739
aF0.875
aF0.52
aF0.75
aa(lp20
g8
aF0.733
aF0.727
aF0.9
aF0.75
aF0.8
aF0.763
aF0.871
aF0.733
aF0.806
aF0.833
aF0.706
aF0.706
aF0.844
aF0.793
aF0.923
aF0.698
aF0.846
aF0.885
aF0.833
aF0.786
aF0.793
aF0.824
aF0.774
aF0.727
aF0.893
aa(lp21
g10
aF0.439
aF0.397
aF0.433
aF0.448
aF0.4
aF0.384
aF0.422
aF0.433
aF0.433
aF0.551
aF0.4
aF0.443
aF0.438
aF0.397
aF0.433
aF0.439
aF0.373
aF0.448
aF0.426
aF0.426
aF0.409
aF0.452
aF0.388
aF0.373
aF0.531
aa(lp22
g12
aF0.793
aF0.885
aF0.893
aF0.767
aF0.903
aF0.848
aF0.871
aF0.885
aF0.897
aF0.905
aF0.92
aF0.8
aF0.871
aF0.889
aF0.833
aF0.857
aF0.952
aF0.931
aF0.889
aF0.852
aF0.926
aF0.794
aF0.962
aF0.793
aF0.926
aa(lp23
g14
aF0.724
aF0.727
aF0.885
aF0.719
aF0.75
aF0.7
aF0.774
aF0.786
aF0.862
aF0.8
aF0.697
aF0.706
aF0.8
aF0.828
aF0.84
aF0.7
aF0.88
aF0.815
aF0.8
aF0.733
aF0.885
aF0.718
aF0.8
aF0.649
aF0.867
aa(lp24
g16
aF0.828
aF0.862
aF0.684
aF0.733
aF0.744
aF0.844
aF0.867
aF0.75
aF0.844
aF0.808
aF0.71
aF0.706
aF0.906
aF0.767
aF0.862
aF0.848
aF0.846
aF0.889
aF0.767
aF0.706
aF0.958
aF0.813
aF0.833
aF0.742
aF0.821
aasS'F_score'
p25
(lp26
(lp27
g6
aF0.727
aF0.679
aF0.655
aF0.556
aF0.787
aF0.61
aF0.721
aF0.714
aF0.691
aF0.627
aF0.586
aF0.702
aF0.75
aF0.702
aF0.75
aF0.742
aF0.704
aF0.627
aF0.632
aF0.633
aF0.764
aF0.642
aF0.778
aF0.473
aF0.724
aa(lp28
g8
aF0.721
aF0.762
aF0.9
aF0.774
aF0.862
aF0.841
aF0.885
aF0.733
aF0.82
aF0.741
aF0.738
aF0.75
aF0.871
aF0.78
aF0.857
aF0.811
aF0.786
aF0.821
aF0.833
aF0.759
aF0.767
aF0.875
aF0.787
aF0.762
aF0.862
aa(lp29
g10
aF0.568
aF0.563
aF0.578
aF0.591
aF0.56
aF0.538
aF0.574
aF0.578
aF0.598
aF0.684
aF0.542
aF0.593
aF0.596
aF0.551
aF0.578
aF0.598
aF0.515
aF0.591
aF0.571
aF0.592
aF0.557
aF0.609
aF0.536
aF0.515
aF0.658
aa(lp30
g12
aF0.767
aF0.821
aF0.862
aF0.767
aF0.918
aF0.875
aF0.885
aF0.821
aF0.881
aF0.745
aF0.821
aF0.8
aF0.885
aF0.842
aF0.833
aF0.909
aF0.784
aF0.915
aF0.842
aF0.807
aF0.862
aF0.844
aF0.893
aF0.78
aF0.877
aa(lp31
g14
aF0.7
aF0.762
aF0.821
aF0.742
aF0.818
aF0.789
aF0.787
aF0.759
aF0.847
aF0.727
aF0.719
aF0.75
aF0.8
aF0.814
aF0.764
aF0.789
aF0.8
aF0.772
aF0.8
aF0.733
aF0.807
aF0.812
aF0.8
aF0.716
aF0.867
aa(lp32
g16
aF0.8
aF0.847
aF0.765
aF0.733
aF0.841
aF0.857
aF0.867
aF0.774
aF0.871
aF0.75
aF0.71
aF0.75
aF0.935
aF0.767
aF0.847
aF0.875
aF0.786
aF0.842
aF0.767
aF0.75
aF0.836
aF0.839
aF0.833
aF0.754
aF0.793
aasS'Accuracy'
p33
(lp34
(lp35
g6
aF0.874
aF0.847
aF0.838
aF0.795
aF0.889
aF0.807
aF0.856
aF0.863
aF0.855
aF0.838
aF0.798
aF0.856
aF0.88
aF0.855
aF0.88
aF0.866
aF0.864
aF0.838
aF0.821
aF0.812
aF0.891
aF0.839
aF0.897
aF0.752
aF0.863
aa(lp36
g8
aF0.857
aF0.873
aF0.949
aF0.88
aF0.923
aF0.908
aF0.941
aF0.863
aF0.906
aF0.88
aF0.857
aF0.864
aF0.932
aF0.889
aF0.932
aF0.882
aF0.898
aF0.915
aF0.915
aF0.88
aF0.882
aF0.932
aF0.889
aF0.872
aF0.932
aa(lp37
g10
aF0.681
aF0.619
aF0.675
aF0.692
aF0.624
aF0.597
aF0.661
aF0.675
aF0.667
aF0.786
aF0.63
aF0.686
aF0.675
aF0.624
aF0.675
aF0.672
aF0.602
aF0.692
aF0.667
aF0.658
aF0.639
aF0.695
aF0.615
aF0.598
aF0.769
aa(lp38
g12
aF0.882
aF0.915
aF0.932
aF0.88
aF0.957
aF0.933
aF0.941
aF0.915
aF0.94
aF0.889
aF0.916
aF0.898
aF0.94
aF0.923
aF0.915
aF0.95
aF0.907
aF0.957
aF0.923
aF0.906
aF0.933
aF0.915
aF0.949
aF0.889
aF0.94
aa(lp39
g14
aF0.849
aF0.873
aF0.915
aF0.863
aF0.897
aF0.874
aF0.89
aF0.88
aF0.923
aF0.872
aF0.849
aF0.864
aF0.897
aF0.906
aF0.889
aF0.874
aF0.907
aF0.889
aF0.897
aF0.863
aF0.908
aF0.89
aF0.897
aF0.838
aF0.932
aa(lp40
g16
aF0.899
aF0.924
aF0.863
aF0.863
aF0.906
aF0.924
aF0.932
aF0.88
aF0.932
aF0.88
aF0.849
aF0.864
aF0.966
aF0.88
aF0.923
aF0.933
aF0.898
aF0.923
aF0.88
aF0.863
aF0.924
aF0.915
aF0.915
aF0.872
aF0.897
aass.